(dp0
S'aided'
p1
F6.896721294521765
sS'limited'
p2
F6.00199474056345
sS'feet roof'
p3
F11.214209408058075
sS'dynamic'
p4
F5.474416495878841
sS'yellow'
p5
F5.15391867002024
sS'toproped'
p6
F6.093226056792954
sS'woods'
p7
F5.820581861705714
sS'tenuous'
p8
F5.623222427547218
sS'hanging'
p9
F4.35040601660512
sS'consists'
p10
F5.512094990502571
sS'captain'
p11
F7.002081810179591
sS'hate'
p12
F6.958596698239852
sS'final bulge'
p13
F6.944511958358113
sS'forget'
p14
F6.206913015227334
sS'feet crux'
p15
F7.748473505258349
sS'pull crux'
p16
F8.218477134504084
sS'beta photo'
p17
F6.339012084856924
sS'small ledge'
p18
F4.547252615628868
sS'meadows'
p19
F6.807490160793822
sS'quartzite'
p20
F5.7170411827648735
sS'northeast face'
p21
F6.825952223633557
sS'fists'
p22
F5.523849953734015
sS'overhanging corner'
p23
F6.692420831009035
sS'cruising'
p24
F7.1282330955064905
sS'risk'
p25
F6.312645209016181
sS'downstream'
p26
F6.251364777798168
sS'connects'
p27
F6.944511958358113
sS'splitting'
p28
F6.167563676438786
sS'shoot'
p29
F6.223776821279339
sS'large boulder'
p30
F5.1835241477968115
sS'jack'
p31
F6.452035473260319
sS'upstream'
p32
F6.312645209016181
sS'ridge line'
p33
F6.994701702881969
sS'bringing'
p34
F6.731206856044191
sS'dihedrals'
p35
F6.058031808671161
sS'encounter'
p36
F5.364884628111216
sS'alpine'
p37
F5.163297402306673
sS'jug lip'
p38
F8.96291760945158
sS'pitch face'
p39
F7.764221862226488
sS'slab crux'
p40
F6.8197602533856365
sS'skills'
p41
F5.55298654782067
sS'heel hooks'
p42
F6.272566985448771
sS'careful loose'
p43
F11.90735658861802
sS'solution'
p44
F6.783392609214761
sS'variations'
p45
F4.673901169996581
sS'shallow dihedral'
p46
F5.983100791203489
sS'great face'
p47
F6.944511958358113
sS'fun line'
p48
F6.589236594773804
sS'ups'
p49
F6.046570365152155
sS'enjoy'
p50
F4.343118113447529
sS'reach lip'
p51
F11.90735658861802
sS'force'
p52
F6.649861216590239
sS'leaders'
p53
F6.084310693135001
sS'consistent'
p54
F5.8115320261857955
sS'small stance'
p55
F6.397968251990044
sS'surmounting'
p56
F6.639498429554692
sS'direct'
p57
F3.9438965219790503
sS'horn'
p58
F4.944166602747782
sS'surrounding'
p59
F5.901003429016288
sS'rusty'
p60
F6.004723255216654
sS'fabulous'
p61
F7.153766397511656
sS'cactus'
p62
F6.327626762631798
sS'blue'
p63
F5.013700234015385
sS'established'
p64
F4.152017775771519
sS'zig zag'
p65
F6.759862111804567
sS'fingery'
p66
F6.495710536762981
sS'grassy ledge'
p67
F6.354397003696403
sS'thunder'
p68
F7.009516788667109
sS'fingers'
p69
F4.082910657740402
sS'poison'
p70
F5.951519219153189
sS'pocket pulling'
p71
F6.624152859880032
sS'tips'
p72
F5.291291403485203
sS'poorly'
p73
F6.29788479343306
sS'told'
p74
F6.389903692153313
sS'hero'
p75
F6.692420831009035
sS'roof traverse'
p76
F6.072545851555415
sS'sharp holds'
p77
F6.676247971763434
sS'true summit'
p78
F6.903410282672561
sS'offers great'
p79
F7.2068762228256045
sS'conglomerate'
p80
F6.736872593579869
sS'face big'
p81
F8.91162431506403
sS'high point'
p82
F6.619089557923485
sS'textured'
p83
F6.614051763893528
sS'path'
p84
F4.700237732410264
sS'dry'
p85
F5.003609331033422
sS'kids'
p86
F6.25486740834937
sS'jams'
p87
F4.171923236118332
sS'overhanging wall'
p88
F5.791464463134987
sS'leaves'
p89
F6.29788479343306
sS'changed'
p90
F6.687000763539696
sS'stances'
p91
F5.619498028456236
sS'changes'
p92
F6.312645209016181
sS'tackling'
p93
F7.017007460396266
sS'golden'
p94
F5.731489318512259
sS'fantastic'
p95
F5.005619381961447
sS'leads short'
p96
F11.90735658861802
sS'divide'
p97
F7.2823837753337495
sS'secluded'
p98
F5.1116508134445064
sS'discontinuous'
p99
F5.845899669690003
sS'spooky'
p100
F6.21362444981532
sS'highly'
p101
F5.1116508134445064
sS'brought'
p102
F6.687000763539696
sS'visible'
p103
F4.880929779918385
sS'slabby face'
p104
F5.767472036391765
sS'total'
p105
F5.750377603032465
sS'crux easier'
p106
F8.243794942488375
sS'small dihedral'
p107
F6.777457873694947
sS'arms'
p108
F6.339012084856924
sS'fingerlocks'
p109
F6.719970782777265
sS'overhead'
p110
F6.174015311720275
sS'spike'
p111
F6.681609914904819
sS'loose rocks'
p112
F6.389903692153313
sS'type'
p113
F5.35484870158343
sS'tell'
p114
F6.078410971007814
sS'separated'
p115
F5.869485668695883
sS'brings'
p116
F5.769629534531786
sS'tree bouldering'
p117
F6.495710536762981
sS'aware'
p118
F5.941209849494328
sS'lunge'
p119
F6.142165485833176
sS'glass'
p120
F6.331407485471704
sS'warm'
p121
F3.761227078592615
sS'pinching'
p122
F6.536718560490358
sS'small sharp'
p123
F6.958596698239852
sS'excellent'
p124
F3.4138415245563603
sS'hole'
p125
F4.674623452440406
sS'hold'
p126
F3.284722884743786
sS'abundance'
p127
F6.903410282672561
sS'join'
p128
F4.871208094867485
sS'room'
p129
F5.70279882604933
sS'blade'
p130
F6.45631813505232
sS'grovel'
p131
F6.813606387811258
sS'roof'
p132
F2.1170937267965204
sS'worth'
p133
F3.627405872895494
sS'gastons'
p134
F6.604051680558944
sS'clean face'
p135
F6.560249057900552
sS'example'
p136
F6.890076751803096
sS'bit harder'
p137
F6.049423434134561
sS'caution'
p138
F5.832010557529336
sS'large flake'
p139
F5.502128130587179
sS'fun short'
p140
F6.708859557352195
sS'story'
p141
F6.513729042265659
sS'provide'
p142
F5.394126477705713
sS'travel'
p143
F6.418418862461334
sS'nuts'
p144
F5.026972506432015
sS'feature'
p145
F3.842091379720288
sS'machine'
p146
F6.95152953101676
sS'necessary'
p147
F5.314312054475583
sS'amazing'
p148
F4.478429393815748
sS'fall potential'
p149
F6.46061921695171
sS'adjacent'
p150
F5.7190924655354305
sS'crux getting'
p151
F7.197826387305686
sS'gate'
p152
F6.47801095966358
sS'beach'
p153
F6.01571237679225
sS'beauty'
p154
F6.410188363324819
sS'insecure'
p155
F5.392643897745491
sS'earlier'
p156
F6.397968251990044
sS'demanding'
p157
F6.518284858801519
sS'wrong'
p158
F5.898543403175426
sS'pretty hard'
p159
F7.087075023012984
sS'lay'
p160
F5.750377603032465
sS'feet ground'
p161
F11.90735658861802
sS'mesa'
p162
F7.047544184256348
sS'burly'
p163
F5.258372038593245
sS'arch'
p164
F5.215272846111392
sS'bulge crux'
p165
F6.604051680558944
sS'types'
p166
F6.609039222069984
sS'horizontal cracks'
p167
F6.139035592824248
sS'big tree'
p168
F6.541380573596169
sS'pullout'
p169
F6.731206856044191
sS'think'
p170
F4.0686190290187385
sS'large holds'
p171
F6.075474111334503
sS'faces east'
p172
F7.039822138162438
sS'green'
p173
F4.744184197771378
sS'jungle'
p174
F6.495710536762981
sS'suggest'
p175
F6.180508841030823
sS'range difficulty'
p176
F11.214209408058075
sS'order'
p177
F5.818311713171174
sS'wind'
p178
F5.3406841588147795
sS'steep sustained'
p179
F7.90002340338555
sS'deck'
p180
F4.8934411138074925
sS'vary'
p181
F6.354397003696403
sS'crimping'
p182
F5.612090587178375
sS'diagonally'
p183
F6.234033321446528
sS'fit'
p184
F6.227183979600953
sS'directional'
p185
F5.988462734344874
sS'fix'
p186
F6.8511107832697125
sS'better'
p187
F3.326062471795259
sS'zag'
p188
F6.6446663997131346
sS'hidden'
p189
F4.304456126413265
sS'thought provoking'
p190
F6.117396417720767
sS'fin'
p191
F5.284620264668181
sS'easier'
p192
F2.7459963988635563
sS'sheltered'
p193
F6.748301289403491
sS'eventually'
p194
F4.539016902306639
sS'undercut'
p195
F6.151614375031108
sS'tourist'
p196
F7.1282330955064905
sS'ledge pitch'
p197
F6.187044812010609
sS'similar'
p198
F4.822292294665473
sS'workout'
p199
F6.876918667225585
sS'safe'
p200
F4.999601309635883
sS'break'
p201
F4.229956158103213
sS'band'
p202
F4.7772580784924426
sS'crux reach'
p203
F7.846913578071601
sS'silver'
p204
F6.687000763539696
sS'rocky'
p205
F5.99927365044909
sS'alternately'
p206
F6.9375432890420194
sS'rocks'
p207
F4.140939690598365
sS'crux pulling'
p208
F7.343008397150184
sS'reasonable'
p209
F5.621358494109156
sS'pinch'
p210
F4.235995665427376
sS'went'
p211
F5.157425394829451
sS'bone'
p212
F6.987375662789896
sS'luck'
p213
F6.339012084856924
sS'pretty cool'
p214
F6.857500581368483
sS'arete reach'
p215
F8.269770428891634
sS'series'
p216
F4.141363509210345
sS'big ledge'
p217
F4.943220976199775
sS'large roof'
p218
F5.375022296395671
sS'cathedral'
p219
F6.522861525828931
sS'sounds'
p220
F6.629241929387503
sS'trending'
p221
F4.565224858033299
sS'handholds'
p222
F6.170784291138829
sS'god'
p223
F5.933546976748759
sS'surprise'
p224
F6.47801095966358
sS'short vertical'
p225
F6.681609914904819
sS'tops'
p226
F5.7211479647175265
sS'little'
p227
F2.5646730296541245
sS'free'
p228
F4.09497838262941
sS'standard'
p229
F4.944166602747782
sS'formation'
p230
F3.8969969996982363
sS'struggle'
p231
F6.660332516457534
sS'corner small'
p232
F8.473369384132875
sS'enormous'
p233
F6.482406571136618
sS'created'
p234
F6.52745923507756
sS'great warm'
p235
F6.161153398077867
sS'days'
p236
F4.734932011493175
sS'knobby'
p237
F6.220381232278201
sS'tempting'
p238
F7.017007460396266
sS'tied'
p239
F6.965714166008716
sS'small pockets'
p240
F6.283339082430682
sS'leads easier'
p241
F11.90735658861802
sS'corner large'
p242
F9.961446439562707
sS'chopped'
p243
F6.807490160793822
sS'features'
p244
F3.787362760892915
sS'lip mantle'
p245
F7.882004897882871
sS'grade'
p246
F3.3629374109481915
sS'subtle'
p247
F6.754064994120242
sS'bushwhack'
p248
F6.748301289403491
sS'hook'
p249
F4.581549086022248
sS'featured'
p250
F4.34779709261032
sS'feet higher'
p251
F6.9375432890420194
sS'veer'
p252
F6.286955722900871
sS'bouldering'
p253
F3.961092945037479
sS'service'
p254
F6.447771074473861
sS'feet tall'
p255
F5.99927365044909
sS'medium sized'
p256
F6.47801095966358
sS'plentiful'
p257
F6.65508316057139
sS'needed'
p258
F4.962305524892186
sS'master'
p259
F6.629241929387503
sS'listed'
p260
F4.686982751894071
sS'bushwhacking'
p261
F6.994701702881969
sS'airy'
p262
F5.193186058708549
sS'legs'
p263
F6.676247971763434
sS'dogs'
p264
F6.589236594773804
sS'toe'
p265
F4.992625695899458
sS'tool'
p266
F6.619089557923485
sS'short wall'
p267
F6.301554522322023
sS'incut'
p268
F4.92635084789629
sS'western'
p269
F5.568762510414838
sS'somewhat'
p270
F3.9639288207416477
sS'crawl'
p271
F6.777457873694947
sS'distance'
p272
F5.302058667669819
sS'feet small'
p273
F9.42244993883002
sS'warmup'
p274
F5.255784715028293
sS'obvious flake'
p275
F6.6446663997131346
sS'tree'
p276
F2.8484206708010706
sS'tackles'
p277
F6.574637795352651
sS'scramble base'
p278
F11.90735658861802
sS'matter'
p279
F6.145305205837843
sS'street'
p280
F6.111298837852648
sS'silly'
p281
F6.9375432890420194
sS'snow'
p282
F4.744184197771378
sS'iron'
p283
F5.737745856126565
sS'devious'
p284
F6.01571237679225
sS'feeling'
p285
F5.556470871903281
sS'spotter'
p286
F6.206913015227334
sS'bridge'
p287
F5.700780661893093
sS'rad'
p288
F6.681609914904819
sS'detached block'
p289
F6.536718560490358
sS'sees'
p290
F5.547782719945643
sS'runner'
p291
F6.078410971007814
sS'modern'
p292
F6.055154108843546
sS'mind'
p293
F5.169204094022064
sS'spent'
p294
F6.634357030054273
sS'wide cracks'
p295
F7.119864845835974
sS'rat'
p296
F6.972882655487329
sS'rattly'
p297
F7.216008706388877
sS'wedged'
p298
F6.21699713429396
sS'runnel'
p299
F6.944511958358113
sS'leads small'
p300
F11.90735658861802
sS'screws'
p301
F6.80141111471744
sS'edgy'
p302
F7.188857717322926
sS'forced'
p303
F6.513729042265659
sS'thoughtful'
p304
F5.972462392998433
sS'strength'
p305
F5.829714345268986
sS'quarry'
p306
F6.3201079302177705
sS'convenient'
p307
F6.227183979600953
sS'sw face'
p308
F7.0790428513157195
sS'angle eases'
p309
F6.323860279836321
sS'isolated'
p310
F6.8197602533856365
sS'huge jugs'
p311
F6.857500581368483
sS'chest'
p312
F6.203574113961819
sS'ledge small'
p313
F9.016984830721857
sS'short finger'
p314
F7.032159265416869
sS'cleft'
p315
F6.569818508916702
sS'low angled'
p316
F5.874270366819219
sS'pull roof'
p317
F7.1282330955064905
sS'committing'
p318
F4.706931695673063
sS'lowball'
p319
F6.670914625788071
sS'straight slab'
p320
F11.90735658861802
sS'looming'
p321
F7.02455466603165
sS'regular'
p322
F6.08135648123757
sS'mouth'
p323
F6.03242585776599
sS'plenty'
p324
F4.729574172422823
sS'camp'
p325
F5.704821071430098
sS'flow'
p326
F5.602907786196039
sS'dog'
p327
F5.642055375880311
sS'crowd'
p328
F7.002081810179591
sS'spend'
p329
F6.473634585063781
sS'definitely'
p330
F4.567818893210346
sS'tech'
p331
F7.047544184256348
sS'entertaining'
p332
F6.708859557352195
sS'test piece'
p333
F6.783392609214761
sS'bomb'
p334
F6.29788479343306
sS'face south'
p335
F7.563551166764337
sS'precarious'
p336
F6.972882655487329
sS'stepping'
p337
F5.416633054115513
sS'pitch leads'
p338
F7.4187202188858805
sS'earth'
p339
F6.426717665276029
sS'bail'
p340
F6.02682360221732
sS'enjoyed'
p341
F6.807490160793822
sS'reach base'
p342
F11.90735658861802
sS'tricky sequence'
p343
F7.063169502159429
sS'crux small'
p344
F8.540060758631546
sS'weekends'
p345
F6.569818508916702
sS'bust'
p346
F5.37939867099547
sS'bush'
p347
F4.968102642576512
sS'rich'
p348
F6.863931471698773
sS'folks'
p349
F5.464816422149822
sS'adequate'
p350
F6.358280503722801
sS'path resistance'
p351
F11.90735658861802
sS'continuity'
p352
F7.047544184256348
sS'plate'
p353
F6.495710536762981
sS'mixture'
p354
F6.9101443148539055
sS'pegmatite'
p355
F7.38556801156898
sS'stop'
p356
F5.11838484562585
sS'pocket'
p357
F3.708167229539953
sS'cracks'
p358
F3.041903762864398
sS'nasty'
p359
F5.910904499998999
sS'hand fist'
p360
F6.560249057900552
sS'bat'
p361
F6.200246323869145
sS'bar'
p362
F5.767472036391765
sS'nicely'
p363
F5.588388474871586
sS'boulder traverse'
p364
F7.153766397511656
sS'bag'
p365
F6.265449517679907
sS'interspersed'
p366
F7.103335543884764
sS'east face'
p367
F4.4939892529227805
sS'sinker'
p368
F6.8321827733841936
sS'shallow pockets'
p369
F6.944511958358113
sS'reach ledge'
p370
F7.055326324698403
sS'upwards'
p371
F5.750377603032465
sS'traverse'
p372
F2.419232976369304
sS'mandatory'
p373
F6.518284858801519
sS'fair'
p374
F5.850572575389396
sS'corner traverse'
p375
F7.576623248331689
sS'nut'
p376
F5.025945284975485
sS'traversing'
p377
F4.29304444216602
sS'pads'
p378
F5.588388474871586
sS'decided'
p379
F6.269001919284275
sS'head straight'
p380
F5.113890456038011
sS'ledge tree'
p381
F9.604771495623975
sS'hammer'
p382
F6.9101443148539055
sS'nice finger'
p383
F6.599088891216816
sS'best'
p384
F2.9625454844524852
sS'feet easy'
p385
F9.268299259002761
sS'pebbles'
p386
F6.629241929387503
sS'said'
p387
F5.150424199370467
sS'runs'
p388
F4.942276243016614
sS'double cracks'
p389
F6.589236594773804
sS'away'
p390
F4.30345862009614
sS'rings'
p391
F5.534036799041008
sS'hikers'
p392
F6.43089303668651
sS'mud'
p393
F6.676247971763434
sS'deceptively'
p394
F6.789362776201266
sS'finger'
p395
F2.9754082421865258
sS'fun little'
p396
F5.869485668695883
sS'sorts'
p397
F6.45631813505232
sS'caves'
p398
F6.6656095735583785
sS'questionable'
p399
F5.615787449059701
sS'multi pitch'
p400
F5.78705916966707
sS'loose blocks'
p401
F5.896089414213859
sS'extend'
p402
F6.258382350456815
sS'nature'
p403
F4.953672377747483
sS'high quality'
p404
F4.90066136178098
sS'crux pull'
p405
F7.16242446025477
sS'southeast'
p406
F5.135421032778418
sS'ramps'
p407
F6.504679206745741
sS'visited'
p408
F6.135915465488004
sS'angling'
p409
F4.779662889270622
sS'improve'
p410
F6.687000763539696
sS'suggested'
p411
F6.703349901541225
sS'summit block'
p412
F6.203574113961819
sS'cow'
p413
F7.145182653820265
sS'country'
p414
F6.029620806838381
sS'hand crimp'
p415
F5.537455605789793
sS'chimneying'
p416
F6.681609914904819
sS'proud line'
p417
F8.169686970334652
sS'faces'
p418
F4.201193618418445
sS'wall small'
p419
F8.816314135259704
sS'disappears'
p420
F6.994701702881969
sS'tough'
p421
F4.483191307575992
sS'prepared'
p422
F5.684780320546651
sS'royal'
p423
F6.994701702881969
sS'cobble'
p424
F6.574637795352651
sS'height'
p425
F4.131660838702775
sS'canyon'
p426
F3.6417064230376908
sS'face leads'
p427
F7.4414484699634365
sS'getting ground'
p428
F11.90735658861802
sS'wider'
p429
F5.789259390576673
sS'springs'
p430
F6.414295145277472
sS'trust'
p431
F6.069626141452081
sS'strong'
p432
F5.640156040076658
sS'corner leads'
p433
F7.732969318722383
sS'positive edges'
p434
F6.435085914946546
sS'tiny'
p435
F4.596806430083598
sS'quickly'
p436
F5.0096516454893845
sS'chimneys'
p437
F6.358280503722801
sS'expected'
p438
F7.009516788667109
sS'basin'
p439
F6.25486740834937
sS'tallest'
p440
F5.8115320261857955
sS'face obvious'
p441
F10.29791867618392
sS'ledge head'
p442
F7.071074681666542
sS'life'
p443
F5.657381346358537
sS'eastern'
p444
F5.816046706540322
sS'big holds'
p445
F4.873850104330323
sS'sunshine'
p446
F6.286955722900871
sS'small crag'
p447
F6.759862111804567
sS'bouldery crux'
p448
F6.65508316057139
sS'fest'
p449
F6.414295145277472
sS'child'
p450
F6.930622846197446
sS'catch'
p451
F5.544328485077555
sS'worked'
p452
F6.223776821279339
sS'exception'
p453
F6.473634585063781
sS'gritty'
p454
F6.02682360221732
sS'morning shade'
p455
F6.518284858801519
sS'balancy'
p456
F4.676069584290405
sS'center wall'
p457
F8.441620685818293
sS'air'
p458
F5.72941247456742
sS'aim'
p459
F5.99385358297975
sS'rests'
p460
F4.97783981785437
sS'weren'
p461
F6.8511107832697125
sS'neat'
p462
F6.055154108843546
sS'stopping'
p463
F6.890076751803096
sS'aid'
p464
F4.7942144799109325
sS'cracked'
p465
F6.619089557923485
sS'balance'
p466
F4.721969573037604
sS'seven'
p467
F6.187044812010609
sS'pyramid'
p468
F6.687000763539696
sS'set toprope'
p469
F8.540060758631546
sS'poison ivy'
p470
F6.509193887100268
sS'need'
p471
F4.069013273060904
sS'elevation'
p472
F6.063812171586661
sS'corner step'
p473
F7.4414484699634365
sS'disappear'
p474
F6.8321827733841936
sS'containing'
p475
F6.742570614694507
sS'slab'
p476
F2.242760944364241
sS'dead tree'
p477
F6.276144806796655
sS'complex'
p478
F6.402025052685658
sS'belly'
p479
F6.350528526918483
sS'avoids'
p480
F6.536718560490358
sS'plates'
p481
F5.869485668695883
sS'reach ground'
p482
F11.90735658861802
sS'independent'
p483
F6.203574113961819
sS'peaks'
p484
F5.893641432575219
sS'juniper'
p485
F6.550770313946008
sS'foot high'
p486
F6.80141111471744
sS'swell'
p487
F7.302186402629929
sS'published'
p488
F6.681609914904819
sS'hang'
p489
F5.088432523342499
sS'quality granite'
p490
F7.063169502159429
sS'rain'
p491
F5.386735461059325
sS'hand'
p492
F2.280940929421658
sS'delight'
p493
F6.731206856044191
sS'squeeze chimney'
p494
F5.850572575389396
sS'waterfall'
p495
F6.01847863028514
sS'routes range'
p496
F6.783392609214761
sS'routes listed'
p497
F7.272627600388384
sS'pitch great'
p498
F8.575152078442816
sS'opportunity'
p499
F6.139035592824248
sS'romp'
p500
F6.007459235035529
sS'west ridge'
p501
F6.589236594773804
sS'ocean'
p502
F6.8704039862043915
sS'contact'
p503
F6.676247971763434
sS'greatest'
p504
F6.930622846197446
sS'mother'
p505
F6.8511107832697125
sS'established routes'
p506
F6.807490160793822
sS'plaque'
p507
F6.883476067771744
sS'graded'
p508
F6.609039222069984
sS'photo'
p509
F4.778059039688648
sS'offwidth'
p510
F4.34415599625995
sS'seen'
p511
F4.369393928849812
sS'grades'
p512
F5.505439391890835
sS'identify'
p513
F6.903410282672561
sS'pitch steep'
p514
F8.68848076374982
sS'yes'
p515
F6.234033321446528
sS'really hard'
p516
F6.825952223633557
sS'shadow'
p517
F6.838452386397789
sS'secure'
p518
F5.700780661893093
sS'knee bar'
p519
F6.614051763893528
sS'ease'
p520
F5.848233393036224
sS'character'
p521
F6.084310693135001
sS'spread'
p522
F6.305237767738319
sS'board'
p523
F6.748301289403491
sS'easy'
p524
F2.211139238239812
sS'definitely worth'
p525
F6.589236594773804
sS'east'
p526
F3.0850344111462813
sS'gave'
p527
F6.01295375435317
sS'shoulder'
p528
F5.588388474871586
sS'huge flake'
p529
F6.8197602533856365
sS'dihedral'
p530
F2.944068313007723
sS'year round'
p531
F6.52745923507756
sS'bands'
p532
F6.569818508916702
sS'breaks'
p533
F5.972462392998433
sS'hubbel'
p534
F7.302186402629929
sS'corner pitch'
p535
F7.332645610114637
sS'unclimbed'
p536
F6.883476067771744
sS'roach'
p537
F7.453009292364513
sS'unique'
p538
F4.772465737052136
sS'dreams'
p539
F7.032159265416869
sS'desire'
p540
F7.009516788667109
sS'county'
p541
F6.569818508916702
sS'gain ledge'
p542
F6.406098378073294
sS'great little'
p543
F6.9101443148539055
sS'boulder sits'
p544
F7.353479697017479
sS'cooler'
p545
F6.279735474927383
sS'steps'
p546
F5.2429475682676125
sS'sparse'
p547
F5.829714345268986
sS'night'
p548
F6.01020272098128
sS'security'
p549
F6.958596698239852
sS'free standing'
p550
F6.522861525828931
sS'clean nicely'
p551
F11.214209408058075
sS'big reach'
p552
F6.550770313946008
sS'old'
p553
F3.7195011449223965
sS'creek'
p554
F4.340528109409689
sS'deal'
p555
F6.161153398077867
sS'people'
p556
F4.130402185295579
sS'overhung'
p557
F4.7645291874564
sS'topping'
p558
F5.249345542747272
sS'dead'
p559
F4.902474598905161
sS'winds'
p560
F6.574637795352651
sS'escape'
p561
F5.304768696428684
sS'multiple'
p562
F5.281964220610065
sS'confusing'
p563
F6.896721294521765
sS'great rest'
p564
F6.844761555591053
sS'wasatch'
p565
F7.512907433945582
sS'purple'
p566
F6.447771074473861
sS'obvious hand'
p567
F7.009516788667109
sS'opposite'
p568
F5.517115921552671
sS'ice'
p569
F4.04178483093323
sS'creative'
p570
F6.075474111334503
sS'leads ledge'
p571
F11.90735658861802
sS'finger pocket'
p572
F5.554727192298454
sS'yields'
p573
F7.111566043021279
sS'easy corner'
p574
F6.896721294521765
sS'core'
p575
F6.513729042265659
sS'base large'
p576
F11.214209408058075
sS'bold'
p577
F5.928470823716898
sS'tour'
p578
F6.670914625788071
sS'burn'
p579
F6.518284858801519
sS'feet pitch'
p580
F6.857500581368483
sS'pinches'
p581
F4.966166533549646
sS'memorable'
p582
F6.145305205837843
sS'post'
p583
F5.602907786196039
sS'super'
p584
F4.117074207914538
sS'takes'
p585
F4.0093168978534015
sS'plug'
p586
F5.886333239268494
sS'reach high'
p587
F6.6446663997131346
sS'obvious roof'
p588
F6.393927842453039
sS'cowboy'
p589
F7.216008706388877
sS'easier ground'
p590
F5.199272504764951
sS'hand sized'
p591
F6.177256805644446
sS'simul'
p592
F6.331407485471704
sS'situated'
p593
F6.066714931244622
sS'afternoon'
p594
F4.603513363340316
sS'face traverse'
p595
F6.896721294521765
sS'commit'
p596
F5.818311713171174
sS'permission'
p597
F6.896721294521765
sS'slightly'
p598
F3.0322092717646703
sS'nice ledge'
p599
F5.452158025277898
sS'corner roof'
p600
F7.576623248331689
sS'faint'
p601
F5.765319183030664
sS'balancey'
p602
F6.393927842453039
sS'mantle'
p603
F3.4842543206013783
sS'puzzle'
p604
F6.813606387811258
sS'lies'
p605
F4.573027238317484
sS'crags'
p606
F4.897947655909383
sS'capped'
p607
F5.9804305626476095
sS'work feet'
p608
F8.68848076374982
sS'soon'
p609
F5.056171661124278
sS'possible traverse'
p610
F9.342407231156484
sS'stump'
p611
F6.759862111804567
sS'compression'
p612
F5.99927365044909
sS'crux low'
p613
F8.862834150894598
sS'flying'
p614
F6.3739670998905
sS'traverse straight'
p615
F6.972882655487329
sS'fight'
p616
F5.676875141039538
sS'short distance'
p617
F6.223776821279339
sS'great stone'
p618
F7.31223673848343
sS'war'
p619
F7.0790428513157195
sS'overhang'
p620
F3.339660415028676
sS'happy'
p621
F6.040888531684724
sS'fork'
p622
F5.77613009913488
sS'north south'
p623
F7.7802222035729285
sS'head'
p624
F2.9201597679560476
sS'medium'
p625
F5.116135125891835
sS'offering'
p626
F6.093226056792954
sS'offer'
p627
F5.095011494440541
sS'landing'
p628
F4.527724436008468
sS'laybacking'
p629
F5.886333239268494
sS'heinous'
p630
F6.725573038325935
sS'heat'
p631
F6.377927501106597
sS'needles'
p632
F6.279735474927383
sS'hear'
p633
F6.594150609576233
sS'gets easier'
p634
F6.45631813505232
sS'traverse ledge'
p635
F7.58986847508171
sS'face routes'
p636
F6.560249057900552
sS'sustained'
p637
F3.5051254156714644
sS'easier terrain'
p638
F5.376478960892135
sS'removed'
p639
F6.043725413019923
sS'true'
p640
F5.013700234015385
sS'north facing'
p641
F5.582997626236709
sS'sidepull'
p642
F4.018272181582506
sS'inside'
p643
F4.809807738003228
sS'attached'
p644
F6.418418862461334
sS'gneiss'
p645
F6.719970782777265
sS'arete small'
p646
F9.134767866378239
sS'proud'
p647
F6.084310693135001
sS'sticks'
p648
F6.987375662789896
sS'classic'
p649
F3.2890518958333717
sS'toss'
p650
F5.686766418518281
sS'snow ice'
p651
F7.748473505258349
sS'covers'
p652
F6.736872593579869
sS'evidence'
p653
F6.8511107832697125
sS'holds fun'
p654
F7.937064675065899
sS'crumbly'
p655
F5.367770633000351
sS'cobbles'
p656
F6.294228482229951
sS'mediocre'
p657
F6.6978704357766
sS'head wall'
p658
F6.157963602709767
sS'check'
p659
F4.933813569097881
sS'physical'
p660
F5.871875156093264
sS'west north'
p661
F9.7101320112818
sS'glacier'
p662
F6.114342980233877
sS'techy'
p663
F5.871875156093264
sS'handed'
p664
F6.170784291138829
sS'reality'
p665
F6.958596698239852
sS'grabbing'
p666
F6.759862111804567
sS'interested'
p667
F6.930622846197446
sS'holding'
p668
F6.789362776201266
sS'test'
p669
F5.177532518128545
sS'tie'
p670
F6.1837714866656395
sS'roll'
p671
F6.342836181295327
sS'realize'
p672
F6.923749966909684
sS'nw'
p673
F5.6690319635785125
sS'tiered'
p674
F6.565022336653209
sS'sling'
p675
F4.6531787421615025
sS'wing'
p676
F6.614051763893528
sS'felt'
p677
F4.840889618481063
sS'journey'
p678
F6.560249057900552
sS'ridges'
p679
F7.111566043021279
sS'poor feet'
p680
F6.342836181295327
sS'hurt'
p681
F6.896721294521765
sS'weekend'
p682
F6.560249057900552
sS'worth effort'
p683
F11.90735658861802
sS'longer'
p684
F4.5371259468109395
sS'bullet'
p685
F5.983100791203489
sS'rough'
p686
F5.7170411827648735
sS'push'
p687
F6.049423434134561
sS'small crimp'
p688
F5.754623893913916
sS'corner boulder'
p689
F9.961446439562707
sS'stacks'
p690
F7.1282330955064905
sS'slabby'
p691
F3.9989694293279774
sS'managed'
p692
F6.980102903460816
sS'chain'
p693
F4.630108861986536
sS'rating'
p694
F4.417944505109301
sS'dance'
p695
F6.251364777798168
sS'patina'
p696
F5.3406841588147795
sS'separates'
p697
F6.8704039862043915
sS'easy fun'
p698
F7.846913578071601
sS'leads'
p699
F3.074039651118699
sS'avalanche'
p700
F6.719970782777265
sS'selection'
p701
F6.157963602709767
sS'small edges'
p702
F5.610247268684085
sS'skin'
p703
F6.203574113961819
sS'battle'
p704
F6.402025052685658
sS'spaced'
p705
F5.255784715028293
sS'abundant'
p706
F6.795368800261477
sS'milk'
p707
F7.0790428513157195
sS'base wall'
p708
F11.90735658861802
sS'chimney pitch'
p709
F7.2823837753337495
sS'hump'
p710
F6.965714166008716
sS'technique'
p711
F5.322565196232304
sS'passage'
p712
F6.251364777798168
sS'unpleasant'
p713
F6.9101443148539055
sS'marks'
p714
F5.7211479647175265
sS'holds crux'
p715
F7.353479697017479
sS'lake'
p716
F4.678242710824718
sS'southwest'
p717
F4.97783981785437
sS'brown'
p718
F5.226501909827805
sS'advantage'
p719
F6.731206856044191
sS'runout face'
p720
F6.9375432890420194
sS'choice'
p721
F5.302058667669819
sS'advised'
p722
F6.719970782777265
sS'mini roof'
p723
F6.65508316057139
sS'trouble'
p724
F6.47801095966358
sS'blast'
p725
F6.187044812010609
sS'facing dihedral'
p726
F4.260525197187539
sS'minute'
p727
F5.773958545621372
sS'cool'
p728
F3.418562871723481
sS'impressive'
p729
F5.686766418518281
sS'level'
p730
F4.870328973931744
sS'die'
p731
F6.903410282672561
sS'gain small'
p732
F7.103335543884764
sS'fragile'
p733
F6.075474111334503
sS'brother'
p734
F6.71439973772781
sS'standards'
p735
F6.164353400808538
sS'leave'
p736
F4.819782883060047
sS'team'
p737
F6.639498429554692
sS'quick'
p738
F4.961342597518793
sS'short sweet'
p739
F8.575152078442816
sS'round'
p740
F5.412091032681012
sS'prevent'
p741
F6.742570614694507
sS'work'
p742
F3.0643188636556533
sS'says'
p743
F5.382326930774559
sS'meadow'
p744
F6.725573038325935
sS'trend'
p745
F4.7189438521210665
sS'sign'
p746
F6.190328887211798
sS'crescent'
p747
F6.180508841030823
sS'fear'
p748
F6.418418862461334
sS'pitch crux'
p749
F7.673250084020761
sS'stands'
p750
F6.370022321599484
sS'tree slings'
p751
F10.115597119389966
sS'spire'
p752
F5.10941617564309
sS'shares'
p753
F4.574333574231539
sS'reminiscent'
p754
F6.063812171586661
sS'sequential'
p755
F5.663189687954285
sS'suspect'
p756
F5.588388474871586
sS'shared'
p757
F4.638436460424299
sS'falling'
p758
F5.590191901870736
sS'filled'
p759
F5.55298654782067
sS'great exposure'
p760
F6.65508316057139
sS'tread'
p761
F6.660332516457534
sS'french'
p762
F6.903410282672561
sS'water'
p763
F4.122051406078159
sS'leaning ramp'
p764
F6.890076751803096
sS'yards'
p765
F4.976861822666394
sS'gorge'
p766
F5.657381346358537
sS'routes ranging'
p767
F6.807490160793822
sS'change'
p768
F5.57053085747158
sS'wait'
p769
F6.3739670998905
sS'box'
p770
F5.893641432575219
sS'thirty'
p771
F6.624152859880032
sS'brilliant'
p772
F6.157963602709767
sS'widening'
p773
F6.354397003696403
sS'usually'
p774
F4.83408687115831
sS'weird'
p775
F5.349158785805752
sS'small tree'
p776
F5.410581598432158
sS'love'
p777
F5.241672870835612
sS'hiking'
p778
F5.229014473963688
sS'extra'
p779
F5.325331449725194
sS'horizontals'
p780
F5.3706649910267155
sS'prefer'
p781
F6.765693032115361
sS'leaning dihedral'
p782
F7.216008706388877
sS'logical'
p783
F6.857500581368483
sS'uphill'
p784
F4.810635210123261
sS'distinct crux'
p785
F6.500184817157901
sS'head slightly'
p786
F7.673250084020761
sS'sporty'
p787
F6.151614375031108
sS'working'
p788
F5.169204094022064
sS'direct line'
p789
F6.142165485833176
sS'positive'
p790
F4.19491275434303
sS'easy pitch'
p791
F7.197826387305686
sS'visit'
p792
F5.561720227789425
sS'sports'
p793
F6.08135648123757
sS'live'
p794
F6.316369608107164
sS'memory'
p795
F6.903410282672561
sS'tape'
p796
F6.234033321446528
sS'highest point'
p797
F6.447771074473861
sS'felt harder'
p798
F7.673250084020761
sS'feet face'
p799
F9.604771495623975
sS'wicked'
p800
F6.560249057900552
sS'sharing'
p801
F6.838452386397789
sS'towers'
p802
F5.549514322109921
sS'steep corner'
p803
F6.45631813505232
sS'effort'
p804
F5.5512489279221295
sS'easiest'
p805
F4.512863481398982
sS'fly'
p806
F6.541380573596169
sS'great place'
p807
F5.816046706540322
sS'large block'
p808
F5.789259390576673
sS'avoiding'
p809
F5.581207115462921
sS'cap'
p810
F6.294228482229951
sS'routes south'
p811
F9.7101320112818
sS'cat'
p812
F6.327626762631798
sS'hardest'
p813
F4.644026971141184
sS'soloing'
p814
F6.4912561864136
sS'traverse roof'
p815
F10.808744299949911
sS'steep wall'
p816
F5.466410047985099
sS'growing'
p817
F5.727339934965448
sS'detached'
p818
F5.12403138801406
sS'hand holds'
p819
F6.180508841030823
sS'placements'
p820
F4.573680192960337
sS'streak'
p821
F4.783683803413413
sS'heart'
p822
F5.712951197513348
sS'crazy'
p823
F5.901003429016288
sS'sandbag'
p824
F6.389903692153313
sS'gaston'
p825
F5.202942233653913
sS'grassy'
p826
F5.593808542340925
sS'figure'
p827
F4.933813569097881
sS'chip'
p828
F6.807490160793822
sS'confused'
p829
F6.965714166008716
sS'heard'
p830
F6.075474111334503
sS'easily seen'
p831
F7.243917494505953
sS'angle face'
p832
F6.397968251990044
sS'pink'
p833
F5.9804305626476095
sS'winter'
p834
F4.51964734953698
sS'steve'
p835
F6.452035473260319
sS'sandstone'
p836
F4.801570459136749
sS'pine'
p837
F4.434855843880462
sS'beat'
p838
F6.708859557352195
sS'sunday'
p839
F7.009516788667109
sS'varnished'
p840
F5.761027330949123
sS'pure'
p841
F5.859984409571743
sS'pins'
p842
F5.122899525980377
sS'sandbagged'
p843
F6.703349901541225
sS'staircase'
p844
F6.80141111471744
sS'wonderful'
p845
F5.640156040076658
sS'southern'
p846
F5.173954696780661
sS'short powerful'
p847
F7.90002340338555
sS'edges pockets'
p848
F7.995333583189875
sS'holds small'
p849
F9.50946131581965
sS'mad'
p850
F7.055326324698403
sS'date'
p851
F6.4435247835924105
sS'suck'
p852
F6.95152953101676
sS'truly'
p853
F6.01295375435317
sS'smooth face'
p854
F6.65508316057139
sS'inobvious'
p855
F7.2068762228256045
sS'scrambling'
p856
F4.916179701496811
sS'branches'
p857
F6.584346609479613
sS'remember'
p858
F5.212794530096925
sS'south west'
p859
F6.8321827733841936
sS'sw'
p860
F5.700780661893093
sS'switch'
p861
F6.385895670755774
sS'deposit'
p862
F7.095172233245603
sS'big boulder'
p863
F6.546064422908596
sS'hands fists'
p864
F7.975530955893695
sS'tall'
p865
F3.8847876416297655
sS'hands rest'
p866
F6.021252557167864
sS'pulled'
p867
F5.933546976748759
sS'typical'
p868
F5.257077540030599
sS'shield'
p869
F6.509193887100268
sS'valley'
p870
F4.721969573037604
sS'pointed'
p871
F6.725573038325935
sS'wall large'
p872
F9.342407231156484
sS'clean slab'
p873
F6.9101443148539055
sS'aiding'
p874
F7.197826387305686
sS'brain'
p875
F6.6978704357766
sS'large hueco'
p876
F6.742570614694507
sS'thinner'
p877
F5.92342030793083
sS'face west'
p878
F8.1006940988477
sS'cuts'
p879
F6.072545851555415
sS'cold'
p880
F5.0106622569953085
sS'scale'
p881
F6.624152859880032
sS'match hands'
p882
F7.087075023012984
sS'thumb'
p883
F6.01295375435317
sS'apex'
p884
F5.773958545621372
sS'cleanest'
p885
F7.063169502159429
sS'hot'
p886
F4.97783981785437
sS'perfect hand'
p887
F6.863931471698773
sS'steepest'
p888
F5.903469521511481
sS'attraction'
p889
F6.6978704357766
sS'offers'
p890
F4.184679072150017
sS'mantling'
p891
F6.569818508916702
sS'pockets edges'
p892
F8.123166954699759
sS'beware loose'
p893
F8.91162431506403
sS'gets morning'
p894
F6.930622846197446
sS'bad feet'
p895
F6.290585490951449
sS'fun pitch'
p896
F6.813606387811258
sS'ugly'
p897
F6.323860279836321
sS'apron'
p898
F6.795368800261477
sS'cling'
p899
F6.210263102112616
sS'tucked'
p900
F6.316369608107164
sS'views'
p901
F4.796660465639193
sS'feet traverse'
p902
F7.603291495413851
sS'underneath'
p903
F5.0895260171638705
sS'real crux'
p904
F6.783392609214761
sS'runners'
p905
F6.123531406288283
sS'matched'
p906
F4.570419674910403
sS'execute'
p907
F7.063169502159429
sS'steep slab'
p908
F5.630713099276376
sS'streaks'
p909
F6.629241929387503
sS'small crimps'
p910
F5.0862491163615555
sS'corners'
p911
F5.110532870343165
sS'drop'
p912
F4.9489081953203655
sS'possibilities'
p913
F6.435085914946546
sS'twin cracks'
p914
F6.565022336653209
sS'entirely'
p915
F6.2478743728584
sS'cliffs'
p916
F4.938506210276072
sS'square'
p917
F5.969820383535594
sS'significantly'
p918
F5.918395171728157
sS'cairn'
p919
F6.629241929387503
sS'obvious wide'
p920
F6.813606387811258
sS'fires'
p921
F7.1711581402235245
sS'north west'
p922
F6.844761555591053
sS'dihedral pitch'
p923
F7.829819144712301
sS'routes face'
p924
F7.829819144712301
sS'year'
p925
F4.892542237342476
sS'perfect hands'
p926
F7.002081810179591
sS'happen'
p927
F6.703349901541225
sS'avoided'
p928
F5.891199428919667
sS'tried'
p929
F5.818311713171174
sS'living'
p930
F7.039822138162438
sS'shown'
p931
F6.362179144138458
sS'jackson'
p932
F6.736872593579869
sS'bad ass'
p933
F8.218477134504084
sS'space'
p934
F5.657381346358537
sS'big roof'
p935
F5.750377603032465
sS'seriously'
p936
F6.649861216590239
sS'base cliff'
p937
F11.90735658861802
sS'great line'
p938
F6.565022336653209
sS'correct'
p939
F6.290585490951449
sS'shows'
p940
F6.14845481474074
sS'eagle'
p941
F6.126613072825691
sS'monster'
p942
F6.1082639341574945
sS'possibility'
p943
F6.614051763893528
sS'quite'
p944
F3.6983203228429495
sS'bumps'
p945
F6.279735474927383
sS'arete face'
p946
F7.002081810179591
sS'unnamed'
p947
F6.021252557167864
sS'remainder'
p948
F6.660332516457534
sS'care'
p949
F5.398587451646339
sS'training'
p950
F6.358280503722801
sS'thins'
p951
F6.629241929387503
sS'backside'
p952
F5.409074439141587
sS'flare'
p953
F5.9209045833335825
sS'transition'
p954
F5.744041784583379
sS'funky'
p955
F4.942276243016614
sS'place'
p956
F3.3071098420664975
sS'massive'
p957
F4.813121742693265
sS'swing'
p958
F5.1365671647090405
sS'routes'
p959
F2.353142864540314
sS'view'
p960
F4.700237732410264
sS'altitude'
p961
F7.002081810179591
sS'adventure'
p962
F4.7189438521210665
sS'blind'
p963
F6.223776821279339
sS'spotted'
p964
F7.039822138162438
sS'striking'
p965
F5.436557084835418
sS'question'
p966
F6.8321827733841936
sS'comprised'
p967
F6.754064994120242
sS'long'
p968
F2.6428121626283256
sS'carry'
p969
F6.777457873694947
sS'impossible'
p970
F5.991154526010585
sS'ring'
p971
F5.392643897745491
sS'open'
p972
F4.388749371802768
sS'george'
p973
F6.748301289403491
sS'size'
p974
F4.668859747723656
sS'city'
p975
F5.537455605789793
sS'given'
p976
F5.145783819813965
sS'jugs'
p977
F3.2098438430785015
sS'stuck'
p978
F6.093226056792954
sS'caught'
p979
F7.039822138162438
sS'face corner'
p980
F9.016984830721857
sS'parallel'
p981
F5.692748490195829
sS'white'
p982
F4.289597012009515
sS'bits'
p983
F6.599088891216816
sS'west'
p984
F3.0008276710235022
sS'friend'
p985
F5.647775124553098
sS'gives'
p986
F5.15625511968126
sS'exploring'
p987
F6.838452386397789
sS'hug'
p988
F6.550770313946008
sS'vertical wall'
p989
F6.035238799142604
sS'streaked'
p990
F6.522861525828931
sS'continuous'
p991
F5.084070466262333
sS'kneebar'
p992
F6.4912561864136
sS'steep face'
p993
F4.57957605019639
sS'long reaches'
p994
F6.072545851555415
sS'butt'
p995
F6.2374756656375006
sS'grunt'
p996
F6.546064422908596
sS'slab routes'
p997
F6.813606387811258
sS'easy slab'
p998
F5.1060735541464
sS'wide'
p999
F3.3689891619703767
sS'blank face'
p1000
F6.286955722900871
sS'chockstones'
p1001
F6.6446663997131346
sS'future'
p1002
F6.2478743728584
sS'venture'
p1003
F6.844761555591053
sS'aesthetic'
p1004
F5.447452134240486
sS'ledge base'
p1005
F11.90735658861802
sS'small roof'
p1006
F3.95861813380441
sS'wandering'
p1007
F5.829714345268986
sS'lowest'
p1008
F5.300706402419805
sS'huge roof'
p1009
F6.381903649486237
sS'slightly runout'
p1010
F7.234527754156114
sS'angel'
p1011
F6.639498429554692
sS'grotto'
p1012
F6.916924001839284
sS'roof big'
p1013
F8.816314135259704
sS'horizontal seam'
p1014
F6.795368800261477
sS'slap'
p1015
F5.104961825293709
sS'classic routes'
p1016
F7.002081810179591
sS'say'
p1017
F4.916179701496811
sS'style'
p1018
F5.031091976727255
sS'crux pitch'
p1019
F5.886333239268494
sS'perplexing'
p1020
F7.111566043021279
sS'crux leads'
p1021
F7.188857717322926
sS'saw'
p1022
F5.954113254330236
sS'black wall'
p1023
F7.111566043021279
sS'lumpy'
p1024
F6.8197602533856365
sS'squat'
p1025
F6.536718560490358
sS'scramble easy'
p1026
F10.115597119389966
sS'terrific'
p1027
F6.987375662789896
sS'ideal'
p1028
F6.058031808671161
sS'potential'
p1029
F4.204348906138785
sS'roadside'
p1030
F6.105238213240957
sS'blunt'
p1031
F5.084070466262333
sS'body tension'
p1032
F6.660332516457534
sS'incut edges'
p1033
F7.216008706388877
sS'sure'
p1034
F3.8317739519463005
sS'aspen'
p1035
F7.1711581402235245
sS'normal'
p1036
F6.223776821279339
sS'track'
p1037
F6.876918667225585
sS'falls'
p1038
F4.947958076484045
sS'visitors'
p1039
F6.930622846197446
sS'beta'
p1040
F4.512249042055535
sS'pair'
p1041
F5.4000788762330085
sS'knee'
p1042
F5.619498028456236
sS'foothold'
p1043
F6.589236594773804
sS'camping'
p1044
F5.795889249115342
sS'surprising'
p1045
F6.789362776201266
sS'considered'
p1046
F5.595621779465106
sS'dream'
p1047
F6.126613072825691
sS'average'
p1048
F6.258382350456815
sS'later'
p1049
F5.211557671559529
sS'hand finger'
p1050
F6.916924001839284
sS'tooth'
p1051
F6.046570365152155
sS'great views'
p1052
F6.244396108482074
sS'sunset'
p1053
F6.532078180933856
sS'diagonals'
p1054
F6.9375432890420194
sS'crank'
p1055
F4.785296706988878
sS'width'
p1056
F4.999601309635883
sS'sculpted'
p1057
F6.6656095735583785
sS'crimpers'
p1058
F5.460050726076807
sS'slope'
p1059
F5.323947366459255
sS'perch'
p1060
F6.335202556440256
sS'shot'
p1061
F6.286955722900871
sS'wires'
p1062
F6.132805043073612
sS'rockfall'
p1063
F6.546064422908596
sS'roof pull'
p1064
F5.44901830527323
sS'friction'
p1065
F4.512863481398982
sS'discovered'
p1066
F6.565022336653209
sS'trad routes'
p1067
F6.052284666415593
sS'edge arete'
p1068
F8.611519722613691
sS'nice hand'
p1069
F6.316369608107164
sS'corner'
p1070
F2.1308504978426823
sS'tend'
p1071
F5.841248498514273
sS'ground'
p1072
F2.874111454464211
sS'slot'
p1073
F4.148596044460358
sS'steep arete'
p1074
F6.560249057900552
sS'pump'
p1075
F4.736468110105515
sS'texture'
p1076
F6.703349901541225
sS'wood'
p1077
F7.039822138162438
sS'black'
p1078
F3.7571773189356947
sS'equipped'
p1079
F6.687000763539696
sS'crimp'
p1080
F3.2754071599035943
sS'crimper'
p1081
F6.117396417720767
sS'narrows'
p1082
F5.816046706540322
sS'little bit'
p1083
F5.48086813116033
sS'decent holds'
p1084
F6.305237767738319
sS'fun steep'
p1085
F6.777457873694947
sS'platte'
p1086
F7.032159265416869
sS'poison oak'
p1087
F7.2252253614938
sS'gem'
p1088
F5.7170411827648735
sS'hand size'
p1089
F6.482406571136618
sS'pinnacle'
p1090
F5.022869936575238
sS'tube'
p1091
F7.1282330955064905
sS'seldom'
p1092
F5.938649028632654
sS'morning'
p1093
F4.669578396694577
sS'skyline'
p1094
F6.687000763539696
sS'narrow ledge'
p1095
F6.783392609214761
sS'sloping holds'
p1096
F6.6656095735583785
sS'chossy'
p1097
F4.78207349710731
sS'vision'
p1098
F6.857500581368483
sS'final pitch'
p1099
F6.381903649486237
sS'picnic'
p1100
F6.362179144138458
sS'pockets crimps'
p1101
F8.269770428891634
sS'imposing'
p1102
F6.565022336653209
sS'ledge crux'
p1103
F7.86430532078347
sS'seam'
p1104
F3.6980481769710836
sS'pebble'
p1105
F6.6978704357766
sS'sport'
p1106
F3.5402888557794205
sS'big block'
p1107
F6.6656095735583785
sS'rewarded'
p1108
F6.65508316057139
sS'wonder'
p1109
F5.466410047985099
sS'place piece'
p1110
F6.923749966909684
sS'faces south'
p1111
F6.579480419828439
sS'crystal'
p1112
F5.490624306105694
sS'roof small'
p1113
F8.96291760945158
sS'definite'
p1114
F6.8511107832697125
sS'outside'
p1115
F5.171576574375694
sS'large jug'
p1116
F6.452035473260319
sS'notice'
p1117
F6.227183979600953
sS'vertical'
p1118
F3.205344960209241
sS'dome'
p1119
F4.804034526091908
sS'sport trad'
p1120
F7.616897147469629
sS'wanders'
p1121
F6.323860279836321
sS'hard boulder'
p1122
F7.063169502159429
sS'mono'
p1123
F5.918395171728157
sS'according'
p1124
F5.972462392998433
sS'marked'
p1125
F5.943777244999574
sS'roof face'
p1126
F8.611519722613691
sS'great position'
p1127
F6.9101443148539055
sS'continuation'
p1128
F7.071074681666542
sS'worth visit'
p1129
F6.958596698239852
sS'pop'
p1130
F5.488991652681809
sS'twin'
p1131
F5.386735461059325
sS'feet deck'
p1132
F11.90735658861802
sS'pod'
p1133
F5.15625511968126
sS'considering'
p1134
F6.604051680558944
sS'save'
p1135
F5.590191901870736
sS'unusual'
p1136
F6.435085914946546
sS'stretch'
p1137
F5.280638839368995
sS'onsight'
p1138
F5.972462392998433
sS'mark'
p1139
F5.5794198048888255
sS'breath'
p1140
F6.2374756656375006
sS'roof corner'
p1141
F8.269770428891634
sS'combined'
p1142
F5.754623893913916
sS'featuring'
p1143
F6.495710536762981
sS'tiers'
p1144
F6.890076751803096
sS'bit loose'
p1145
F7.38556801156898
sS'steep juggy'
p1146
F7.332645610114637
sS'photos'
p1147
F6.154783949792387
sS'stems'
p1148
F6.164353400808538
sS'careful'
p1149
F4.33279810441554
sS'great fun'
p1150
F6.95152953101676
sS'case'
p1151
F5.741938734386601
sS'stacked'
p1152
F5.913395161311451
sS'short pitch'
p1153
F5.96455721349132
sS'mount'
p1154
F5.855267419693604
sS'face pitch'
p1155
F7.5506477619284285
sS'trick'
p1156
F6.574637795352651
sS'slippery'
p1157
F5.612090587178375
sS'squeezed'
p1158
F6.944511958358113
sS'scramble ledge'
p1159
F11.90735658861802
sS'slapping'
p1160
F6.670914625788071
sS'really cool'
p1161
F6.00199474056345
sS'margin'
p1162
F6.777457873694947
sS'worth doing'
p1163
F4.992625695899458
sS'face east'
p1164
F8.243794942488375
sS'tricky crux'
p1165
F6.789362776201266
sS'dubious'
p1166
F6.47801095966358
sS'quiet'
p1167
F6.327626762631798
sS'cluster'
p1168
F5.92342030793083
sS'reach large'
p1169
F7.272627600388384
sS'wide chimney'
p1170
F6.857500581368483
sS'ivy'
p1171
F6.269001919284275
sS'edges lead'
p1172
F7.430019774139814
sS'different'
p1173
F4.454954137394382
sS'shuts'
p1174
F5.901003429016288
sS'combination'
p1175
F5.80928230645178
sS'pay'
p1176
F6.385895670755774
sS'height dependent'
p1177
F6.187044812010609
sS'sketchy'
p1178
F5.296660543900261
sS'pitch traverse'
p1179
F6.624152859880032
sS'trip'
p1180
F5.7717916975362815
sS'incuts'
p1181
F6.350528526918483
sS'pad'
p1182
F5.2004942520152735
sS'weakness'
p1183
F5.325331449725194
sS'stepped'
p1184
F6.896721294521765
sS'pitch head'
p1185
F6.930622846197446
sS'extended'
p1186
F6.634357030054273
sS'closest'
p1187
F6.120459207251312
sS'nest'
p1188
F6.024034200129742
sS'short boulder'
p1189
F6.825952223633557
sS'diversion'
p1190
F7.234527754156114
sS'edges'
p1191
F3.2682998094449425
sS'wired'
p1192
F7.0790428513157195
sS'delicate'
p1193
F4.544711318200196
sS'skip'
p1194
F5.712951197513348
sS'changing'
p1195
F6.987375662789896
sS'totally'
p1196
F6.084310693135001
sS'thrown'
p1197
F6.504679206745741
sS'reference'
p1198
F6.594150609576233
sS'weave'
p1199
F7.055326324698403
sS'retreat'
p1200
F6.876918667225585
sS'intermittent'
p1201
F6.3201079302177705
sS'ranch'
p1202
F6.813606387811258
sS'big jugs'
p1203
F6.377927501106597
sS'flakes'
p1204
F4.007832116585822
sS'relief'
p1205
F6.725573038325935
sS'flakey'
p1206
F6.930622846197446
sS'summer'
p1207
F4.346234999087782
sS'pitch short'
p1208
F7.717701846591595
sS'money'
p1209
F6.294228482229951
sS'rest'
p1210
F3.2090091881598353
sS'kill'
p1211
F6.838452386397789
sS'topped'
p1212
F6.629241929387503
sS'aspect'
p1213
F6.09621559564132
sS'slanting'
p1214
F5.062541109409757
sS'blow'
p1215
F5.731489318512259
sS'death'
p1216
F5.667080743447251
sS'short fun'
p1217
F7.1711581402235245
sS'scamper'
p1218
F6.972882655487329
sS'pocketed face'
p1219
F6.748301289403491
sS'setting'
p1220
F5.066810059329334
sS'pile'
p1221
F5.883908995656988
sS'heel hook'
p1222
F4.98274419256946
sS'easy topout'
p1223
F6.574637795352651
sS'real'
p1224
F4.542809574362378
sS'northeast'
p1225
F5.152752489130058
sS'small cave'
p1226
F6.532078180933856
sS'spectacular'
p1227
F5.201717493758018
sS'read'
p1228
F5.791464463134987
sS'high step'
p1229
F5.879078068387322
sS'face small'
p1230
F8.41084902715154
sS'early'
p1231
F4.383875276044523
sS'popular routes'
p1232
F6.994701702881969
sS'sized boulder'
p1233
F7.032159265416869
sS'traffic'
p1234
F4.288614210947607
sS'finger jams'
p1235
F6.748301289403491
sS'aiming'
p1236
F5.528930404966434
sS'vague'
p1237
F6.754064994120242
sS'dare'
p1238
F7.063169502159429
sS'lightning'
p1239
F6.4912561864136
sS'facing'
p1240
F2.4179461210386206
sS'long slings'
p1241
F6.052284666415593
sS'nose'
p1242
F5.460050726076807
sS'headwall'
p1243
F4.059594051144412
sS'drainage'
p1244
F5.951519219153189
sS'final roof'
p1245
F6.65508316057139
sS'downward'
p1246
F6.708859557352195
sS'gently overhanging'
p1247
F6.381903649486237
sS'slings'
p1248
F4.520266352961263
sS'small feet'
p1249
F6.883476067771744
sS'sharp'
p1250
F3.820638668314115
sS'huge boulder'
p1251
F6.813606387811258
sS'exposed'
p1252
F4.22718094818143
sS'original line'
p1253
F6.670914625788071
sS'pitches pitch'
p1254
F8.123166954699759
sS'table'
p1255
F6.393927842453039
sS'matching'
p1256
F6.731206856044191
sS'provided'
p1257
F6.759862111804567
sS'outs'
p1258
F6.276144806796655
sS'noon'
p1259
F6.736872593579869
sS'recorded'
p1260
F6.754064994120242
sS'slick'
p1261
F5.682798159342661
sS'moon'
p1262
F6.258382350456815
sS'provides'
p1263
F4.983727960479593
sS'moderate'
p1264
F3.528276699331417
sS'knife'
p1265
F6.342836181295327
sS'freed'
p1266
F6.522861525828931
sS'turkey'
p1267
F6.838452386397789
sS'welcome'
p1268
F5.857623133386062
sS'business'
p1269
F5.353423184592209
sS'crux roof'
p1270
F6.8511107832697125
sS'set tr'
p1271
F7.717701846591595
sS'sixth'
p1272
F6.754064994120242
sS'sees little'
p1273
F7.302186402629929
sS'broken'
p1274
F4.0044993973374385
sS'meets'
p1275
F5.7717916975362815
sS'buttresses'
p1276
F6.6978704357766
sS'fractured'
p1277
F6.366093043459594
sS'exciting'
p1278
F4.580233296358728
sS'angle slab'
p1279
F5.72941247456742
sS'dicey'
p1280
F6.377927501106597
sS'stone'
p1281
F4.128307943692464
sS'ok'
p1282
F5.223995642851746
sS'smallish'
p1283
F6.95152953101676
sS'stations'
p1284
F6.560249057900552
sS'island'
p1285
F6.14845481474074
sS'favorite'
p1286
F5.500476602548706
sS'fell'
p1287
F6.09621559564132
sS'stand'
p1288
F3.6393942832793114
sS'pockets'
p1289
F3.336054071554751
sS'fun crux'
p1290
F7.374757095464765
sS'better holds'
p1291
F5.482487564712633
sS'crux face'
p1292
F7.58986847508171
sS'feet base'
p1293
F11.90735658861802
sS'set feet'
p1294
F8.473369384132875
sS'ledge step'
p1295
F6.8511107832697125
sS'rising'
p1296
F5.584791348690737
sS'parties'
p1297
F5.744041784583379
sS'face crux'
p1298
F6.47801095966358
sS'technically'
p1299
F6.29788479343306
sS'prepare'
p1300
F6.305237767738319
sS'hand pocket'
p1301
F7.103335543884764
sS'little loose'
p1302
F7.055326324698403
sS'sides'
p1303
F5.148101317954327
sS'slopey'
p1304
F4.094573770040439
sS'low'
p1305
F2.6273968747617804
sS'stars'
p1306
F4.453794716974647
sS'slopes'
p1307
F6.049423434134561
sS'sloper'
p1308
F4.069802227736936
sS'energy'
p1309
F6.649861216590239
sS'immaculate'
p1310
F6.965714166008716
sS'spicy'
p1311
F5.554727192298454
sS'jug'
p1312
F2.969350012146819
sS'pitches'
p1313
F3.562138661941593
sS'beginners'
p1314
F5.575854738724329
sS'strenuous'
p1315
F4.679694089889366
sS'grungy'
p1316
F6.670914625788071
sS'trying'
p1317
F5.367770633000351
sS'spice'
p1318
F6.65508316057139
sS'traveled'
p1319
F6.323860279836321
sS'pull'
p1320
F2.609921509790904
sS'summits'
p1321
F6.339012084856924
sS'bucket'
p1322
F6.01571237679225
sS'tiptoe'
p1323
F7.188857717322926
sS'little traffic'
p1324
F6.541380573596169
sS'dirty'
p1325
F3.8746717126504002
sS'nice little'
p1326
F6.161153398077867
sS'grass'
p1327
F6.546064422908596
sS'expect'
p1328
F4.790151085453676
sS'spring fall'
p1329
F8.649260050596538
sS'moved'
p1330
F6.151614375031108
sS'deep'
p1331
F4.441129032402539
sS'lichen'
p1332
F4.5184104909995835
sS'obvious ledge'
p1333
F6.725573038325935
sS'pedestal'
p1334
F5.988462734344874
sS'arrowhead'
p1335
F7.188857717322926
sS'deserve'
p1336
F7.188857717322926
sS'bivy'
p1337
F6.8321827733841936
sS'field'
p1338
F5.731489318512259
sS'trash'
p1339
F6.47801095966358
sS'gaining'
p1340
F5.692748490195829
sS'separate'
p1341
F5.692748490195829
sS'cove'
p1342
F6.286955722900871
sS'wall routes'
p1343
F7.5506477619284285
sS'peak'
p1344
F4.629418015672359
sS'reach summit'
p1345
F10.29791867618392
sS'smaller holds'
p1346
F6.8511107832697125
sS'tackle'
p1347
F6.14845481474074
sS'hands corner'
p1348
F7.829819144712301
sS'pool'
p1349
F6.687000763539696
sS'missed'
p1350
F5.848233393036224
sS'building'
p1351
F6.594150609576233
sS'remote'
p1352
F5.834312054517615
sS'calls'
p1353
F6.060917813560296
sS'hand pinch'
p1354
F6.2619096909747824
sS'curve'
p1355
F7.2068762228256045
sS'small hands'
p1356
F7.17996876990568
sS'best routes'
p1357
F6.312645209016181
sS'slab leads'
p1358
F7.38556801156898
sS'arete'
p1359
F2.1587116218875617
sS'original'
p1360
F4.466622881228759
sS'wall great'
p1361
F8.218477134504084
sS'consider'
p1362
F5.474416495878841
sS'pointing'
p1363
F7.063169502159429
sS'beware'
p1364
F5.20662547907021
sS'lack'
p1365
F5.520477269255376
sS'center face'
p1366
F7.937064675065899
sS'slung'
p1367
F5.725271681901389
sS'debris'
p1368
F6.9101443148539055
sS'routes east'
p1369
F9.961446439562707
sS'underclinging'
p1370
F6.8511107832697125
sS'dish'
p1371
F5.684780320546651
sS'wingate'
p1372
F6.994701702881969
sS'northwest face'
p1373
F6.71439973772781
sS'hand small'
p1374
F9.134767866378239
sS'opportunities'
p1375
F5.773958545621372
sS'foot holds'
p1376
F6.422559655127365
sS'tail'
p1377
F6.614051763893528
sS'positive holds'
p1378
F5.310210886731369
sS'smile'
p1379
F6.972882655487329
sS'crest'
p1380
F5.92342030793083
sS'sound'
p1381
F6.473634585063781
sS'worse'
p1382
F6.177256805644446
sS'straightforward'
p1383
F5.6690319635785125
sS'sitting'
p1384
F4.61570037944356
sS'layback'
p1385
F4.349883687003274
sS'fat'
p1386
F5.57407696047833
sS'scout'
p1387
F7.136671964152356
sS'worst'
p1388
F6.452035473260319
sS'decide'
p1389
F6.2478743728584
sS'fall'
p1390
F3.652827706678276
sS'excellent stone'
p1391
F7.4187202188858805
sS'splits'
p1392
F5.428846946409451
sS'splitter'
p1393
F4.4101493654147035
sS'heaven'
p1394
F6.838452386397789
sS'hooking'
p1395
F6.589236594773804
sS'hand sloper'
p1396
F6.8197602533856365
sS'list'
p1397
F5.988462734344874
sS'mild'
p1398
F6.789362776201266
sS'large'
p1399
F2.330014774985802
sS'sand'
p1400
F5.908420026671338
sS'bypassed'
p1401
F7.2252253614938
sS'small'
p1402
F1.929271897875109
sS'pull small'
p1403
F6.916924001839284
sS'zig'
p1404
F6.135915465488004
sS'obvious dihedral'
p1405
F6.719970782777265
sS'rate'
p1406
F6.4392964474828895
sS'cottonwood'
p1407
F7.272627600388384
sS'little roof'
p1408
F6.609039222069984
sS'hidden valley'
p1409
F7.111566043021279
sS'casual'
p1410
F6.312645209016181
sS'runout slab'
p1411
F7.332645610114637
sS'short slab'
p1412
F6.251364777798168
sS'bomber'
p1413
F4.758224990060614
sS'sub'
p1414
F6.193623783108651
sS'clear creek'
p1415
F7.103335543884764
sS'sun'
p1416
F3.8430346277072176
sS'brief'
p1417
F5.829714345268986
sS'roofs'
p1418
F4.698016332015111
sS'short traverse'
p1419
F6.965714166008716
sS'version'
p1420
F5.502128130587179
sS'public'
p1421
F6.464938878096227
sS'handy'
p1422
F6.6978704357766
sS'movement'
p1423
F4.2793254616876855
sS'toes'
p1424
F6.29788479343306
sS'deadpoint'
p1425
F5.910904499998999
sS'loose'
p1426
F3.3286920751136817
sS'varnish'
p1427
F6.495710536762981
sS'ranges'
p1428
F6.550770313946008
sS'ranger'
p1429
F6.813606387811258
sS'tracks'
p1430
F6.789362776201266
sS'straight face'
p1431
F11.90735658861802
sS'solid'
p1432
F3.3619647428431043
sS'hand pull'
p1433
F8.506159206955864
sS'pleasant'
p1434
F5.382326930774559
sS'chipped'
p1435
F7.047544184256348
sS'colored'
p1436
F5.6690319635785125
sS'ahead'
p1437
F6.346674957602493
sS'experience'
p1438
F5.227757402773637
sS'prior'
p1439
F6.132805043073612
sS'bulges'
p1440
F5.064673306379598
sS'sun afternoon'
p1441
F8.575152078442816
sS'edges crux'
p1442
F8.41084902715154
sS'pick'
p1443
F5.245501848072709
sS'action'
p1444
F6.004723255216654
sS'routes short'
p1445
F9.7101320112818
sS'couloir'
p1446
F5.988462734344874
sS'narrow'
p1447
F4.788530339555943
sS'face reach'
p1448
F8.816314135259704
sS'options'
p1449
F4.563283738044954
sS'sticking'
p1450
F6.45631813505232
sS'shuffle'
p1451
F7.302186402629929
sS'family'
p1452
F6.748301289403491
sS'marginal'
p1453
F5.8366188606155305
sS'solitude'
p1454
F6.486821589345735
sS'bit dirty'
p1455
F6.452035473260319
sS'backed'
p1456
F6.331407485471704
sS'reach small'
p1457
F7.1711581402235245
sS'pulls'
p1458
F4.578262852371429
sS'establish'
p1459
F5.727339934965448
sS'west facing'
p1460
F5.4211957996739315
sS'proceed'
p1461
F5.883908995656988
sS'distinct'
p1462
F4.990641568264412
sS'contains'
p1463
F5.235323643156953
sS'huecos'
p1464
F5.351999696807355
sS'widens'
p1465
F5.369216764850351
sS'gorgeous'
p1466
F6.272566985448771
sS'taken'
p1467
F5.698766562521392
sS'minor'
p1468
F6.447771074473861
sS'huge ledge'
p1469
F6.3739670998905
sS'flat'
p1470
F4.187338648185776
sS'diamond'
p1471
F6.29788479343306
sS'door'
p1472
F6.43089303668651
sS'alcove'
p1473
F4.498826021723394
sS'surprisingly'
p1474
F5.137714611765517
sS'stick'
p1475
F4.351451495006674
sS'broke'
p1476
F5.92594237736354
sS'particular'
p1477
F6.500184817157901
sS'mellow'
p1478
F5.645864904296978
sS'underclings'
p1479
F4.86594492482321
sS'town'
p1480
F5.441211864380401
sS'hand undercling'
p1481
F6.614051763893528
sS'unprotected face'
p1482
F7.103335543884764
sS'recall'
p1483
F6.522861525828931
sS'hand jam'
p1484
F5.784863779103635
sS'guards'
p1485
F6.634357030054273
sS'feet high'
p1486
F5.891199428919667
sS'remain'
p1487
F6.536718560490358
sS'learn'
p1488
F6.464938878096227
sS'final headwall'
p1489
F6.890076751803096
sS'roof step'
p1490
F7.197826387305686
sS'technical face'
p1491
F6.135915465488004
sS'scramble'
p1492
F3.587395566731492
sS'history'
p1493
F5.554727192298454
sS'beautiful'
p1494
F3.687222631466161
sS'shark'
p1495
F6.883476067771744
sS'south face'
p1496
F4.521505510492812
sS'challenging'
p1497
F4.568468454779142
sS'buttress'
p1498
F3.861447846347241
sS'campsite'
p1499
F6.965714166008716
sS'share'
p1500
F5.645864904296978
sS'bushy'
p1501
F6.251364777798168
sS'terrible'
p1502
F6.129704265395364
sS'sense'
p1503
F6.052284666415593
sS'destination'
p1504
F5.44432713169735
sS'huge'
p1505
F3.53426474117604
sS'needs'
p1506
F5.188343434232761
sS'really fun'
p1507
F5.028000784157581
sS'goal'
p1508
F7.153766397511656
sS'awkward'
p1509
F3.9456377726366556
sS'breaking'
p1510
F5.832010557529336
sS'ledges'
p1511
F3.9681977706612237
sS'utilize'
p1512
F6.80141111471744
sS'stemming'
p1513
F4.124549325778326
sS'worry'
p1514
F6.660332516457534
sS'gullies'
p1515
F6.65508316057139
sS'plant'
p1516
F6.896721294521765
sS'okay'
p1517
F6.151614375031108
sS'intended'
p1518
F6.813606387811258
sS'weaknesses'
p1519
F6.903410282672561
sS'blood'
p1520
F6.265449517679907
sS'horizontal'
p1521
F3.414046337665115
sS'southeast face'
p1522
F6.731206856044191
sS'easy scramble'
p1523
F7.039822138162438
sS'contrived'
p1524
F5.356276253574616
sS'chute'
p1525
F6.46061921695171
sS'short'
p1526
F2.2572785145915772
sS'crowded'
p1527
F5.456886166473844
sS'shady'
p1528
F4.828172194008353
sS'register'
p1529
F6.504679206745741
sS'hauling'
p1530
F6.65508316057139
sS'detached flake'
p1531
F6.771558151567759
sS'shade'
p1532
F4.172360394595239
sS'large flat'
p1533
F6.80141111471744
sS'crimpy'
p1534
F4.497614634537097
sS'rounded'
p1535
F4.808154845064928
sS'help'
p1536
F4.703951067534925
sS'final crux'
p1537
F6.594150609576233
sS'crimps'
p1538
F3.0720006174964154
sS'developed'
p1539
F5.438106271822248
sS'chalked'
p1540
F5.7335704847160835
sS'installed'
p1541
F6.8197602533856365
sS'held'
p1542
F6.965714166008716
sS'steep hand'
p1543
F7.009516788667109
sS'signs'
p1544
F6.660332516457534
sS'hell'
p1545
F5.985778168974205
sS'roof place'
p1546
F7.430019774139814
sS'shallow corner'
p1547
F5.70684741457533
sS'small corner'
p1548
F6.589236594773804
sS'ledge short'
p1549
F8.41084902715154
sS'exact'
p1550
F7.009516788667109
sS'foot roof'
p1551
F7.136671964152356
sS'late'
p1552
F4.9254219114616316
sS'roof pitch'
p1553
F7.272627600388384
sS'strange'
p1554
F5.83893100037391
sS'systems'
p1555
F5.590191901870736
sS'bypass'
p1556
F6.350528526918483
sS'face features'
p1557
F6.863931471698773
sS'wouldn'
p1558
F5.864723754935639
sS'evening'
p1559
F6.565022336653209
sS'straight small'
p1560
F11.90735658861802
sS'seeking'
p1561
F6.890076751803096
sS'slight'
p1562
F5.277993335180572
sS'feet reach'
p1563
F8.816314135259704
sS'walls'
p1564
F4.728048619113986
sS'foot'
p1565
F3.2563320495682624
sS'finger locks'
p1566
F5.778306378557475
sS'adventurous'
p1567
F6.00199474056345
sS'bigger'
p1568
F5.236590267772146
sS'mystery'
p1569
F6.8197602533856365
sS'easily'
p1570
F3.8598470776365983
sS'stopper'
p1571
F5.682798159342661
sS'wash'
p1572
F6.193623783108651
sS'great movement'
p1573
F6.614051763893528
sS'short routes'
p1574
F6.980102903460816
sS'long pitch'
p1575
F5.591998587095686
sS'positions'
p1576
F6.980102903460816
sS'characterized'
p1577
F6.265449517679907
sS'referred'
p1578
F6.71439973772781
sS'heavy'
p1579
F6.294228482229951
sS'edge face'
p1580
F10.29791867618392
sS'mental'
p1581
F6.08135648123757
sS'weight'
p1582
F6.354397003696403
sS'house'
p1583
F5.78705916966707
sS'fish'
p1584
F6.687000763539696
sS'hard'
p1585
F2.6942201293398362
sS'reduce'
p1586
F6.084310693135001
sS'idea'
p1587
F5.3449124949243005
sS'engaging'
p1588
F5.746149266922944
sS'hand jams'
p1589
F5.35770584638421
sS'connect'
p1590
F6.759862111804567
sS'fist'
p1591
F4.552354667512764
sS'really'
p1592
F3.1868960758923657
sS'hands fingers'
p1593
F8.441620685818293
sS'hand jamming'
p1594
F6.80141111471744
sS'surrounded'
p1595
F6.903410282672561
sS'safety'
p1596
F6.397968251990044
sS'hill'
p1597
F4.5948030905154225
sS'issue'
p1598
F6.354397003696403
sS'lower angled'
p1599
F6.258382350456815
sS'ass'
p1600
F6.123531406288283
sS'corner ledge'
p1601
F10.115597119389966
sS'protruding'
p1602
F6.414295145277472
sS'dirt'
p1603
F4.978818770453355
sS'fist jams'
p1604
F6.896721294521765
sS'loose holds'
p1605
F7.047544184256348
sS'pull slab'
p1606
F11.90735658861802
sS'overhangs'
p1607
F5.2429475682676125
sS'difficulty'
p1608
F4.147742437921117
sS'reason'
p1609
F5.485734320811503
sS'base'
p1610
F2.95825111907877
sS'imagine'
p1611
F6.546064422908596
sS'ask'
p1612
F6.3739670998905
sS'rises'
p1613
F6.546064422908596
sS'beginning'
p1614
F4.468973058573713
sS'bushes'
p1615
F5.500476602548706
sS'tree base'
p1616
F11.90735658861802
sS'thread'
p1617
F6.464938878096227
sS'launch'
p1618
F5.7482612001260875
sS'positioning'
p1619
F6.6978704357766
sS'running'
p1620
F5.071097311340953
sS'hidden holds'
p1621
F6.883476067771744
sS'castle'
p1622
F6.058031808671161
sS'fallen'
p1623
F6.154783949792387
sS'virgin'
p1624
F7.272627600388384
sS'limestone'
p1625
F4.947008859516712
sS'feel'
p1626
F4.117488029563315
sS'undercling'
p1627
F3.7056963978093402
sS'short hand'
p1628
F6.783392609214761
sS'linking'
p1629
F6.634357030054273
sS'feet'
p1630
F1.912703798329801
sS'blank'
p1631
F4.846022221707583
sS'campground'
p1632
F5.96455721349132
sS'miss'
p1633
F5.3449124949243005
sS'maple'
p1634
F6.8704039862043915
sS'razor'
p1635
F6.579480419828439
sS'guess'
p1636
F5.761027330949123
sS'cirque'
p1637
F6.550770313946008
sS'heads'
p1638
F4.708425347929847
sS'introduction'
p1639
F6.45631813505232
sS'leading'
p1640
F4.201643764723593
sS'long runners'
p1641
F6.883476067771744
sS'moderately'
p1642
F6.71439973772781
sS'comfy'
p1643
F6.639498429554692
sS'heady'
p1644
F5.855267419693604
sS'station'
p1645
F4.831547724639633
sS'storm'
p1646
F6.532078180933856
sS'rates'
p1647
F6.923749966909684
sS'big flake'
p1648
F6.301554522322023
sS'store'
p1649
F7.0790428513157195
sS'mini'
p1650
F5.122899525980377
sS'short easy'
p1651
F6.624152859880032
sS'option'
p1652
F4.968102642576512
sS'needle'
p1653
F6.80141111471744
sS'facing crag'
p1654
F6.987375662789896
sS'south ridge'
p1655
F7.197826387305686
sS'rifle'
p1656
F6.619089557923485
sS'believe'
p1657
F5.257077540030599
sS'lichen covered'
p1658
F6.220381232278201
sS'king'
p1659
F5.903469521511481
sS'kind'
p1660
F4.840889618481063
sS'namesake'
p1661
F5.864723754935639
sS'double'
p1662
F4.123299585978091
sS'grey'
p1663
F5.663189687954285
sS'ranging'
p1664
F5.428846946409451
sS'express'
p1665
F7.302186402629929
sS'cleaner'
p1666
F6.114342980233877
sS'nice slab'
p1667
F7.087075023012984
sS'outstanding'
p1668
F6.366093043459594
sS'high feet'
p1669
F6.452035473260319
sS'mossy'
p1670
F5.581207115462921
sS'cleaned'
p1671
F4.86245147148865
sS'gets better'
p1672
F7.087075023012984
sS'concentration'
p1673
F5.82742339352243
sS'trad line'
p1674
F6.731206856044191
sS'lie'
p1675
F5.409074439141587
sS'angled slab'
p1676
F6.857500581368483
sS'built'
p1677
F6.589236594773804
sS'flared'
p1678
F5.244223892627217
sS'depending'
p1679
F4.858101747362184
sS'odd'
p1680
F5.843571379930412
sS'self'
p1681
F6.464938878096227
sS'cave'
p1682
F3.8084098396746806
sS'south summit'
p1683
F8.1006940988477
sS'lip'
p1684
F3.118153494144298
sS'build'
p1685
F5.3211849337633454
sS'obviously'
p1686
F6.210263102112616
sS'solve'
p1687
F7.4187202188858805
sS'knobs'
p1688
F4.90793412111006
sS'early morning'
p1689
F7.009516788667109
sS'cliff band'
p1690
F6.075474111334503
sS'play'
p1691
F5.969820383535594
sS'experienced'
p1692
F6.406098378073294
sS'little easier'
p1693
F6.987375662789896
sS'reach'
p1694
F2.7012250614158924
sS'leads large'
p1695
F11.90735658861802
sS'plan'
p1696
F5.613937309771539
sS'moss'
p1697
F5.409074439141587
sS'possible'
p1698
F3.642993258886353
sS'extremely'
p1699
F5.29263098841426
sS'tight hands'
p1700
F6.258382350456815
sS'water streak'
p1701
F6.049423434134561
sS'blunt arete'
p1702
F5.3449124949243005
sS'clear'
p1703
F5.3721153176043615
sS'cover'
p1704
F6.550770313946008
sS'traditional'
p1705
F5.565235169896869
sS'horizontal break'
p1706
F6.170784291138829
sS'clean'
p1707
F3.463379459533042
sS'notch'
p1708
F4.559412765469333
sS'lying'
p1709
F7.02455466603165
sS'joining'
p1710
F6.279735474927383
sS'sector'
p1711
F6.513729042265659
sS'trickery'
p1712
F6.45631813505232
sS'small alcove'
p1713
F6.8511107832697125
sS'gold'
p1714
F5.754623893913916
sS'small boulder'
p1715
F5.869485668695883
sS'scattered'
p1716
F5.82742339352243
sS'hillside'
p1717
F5.636368156759721
sS'session'
p1718
F6.916924001839284
sS'steep headwall'
p1719
F6.3201079302177705
sS'carefully'
p1720
F5.394126477705713
sS'pocketed'
p1721
F5.563476154491689
sS'friable'
p1722
F6.154783949792387
sS'chock'
p1723
F6.754064994120242
sS'fine'
p1724
F4.636348050337029
sS'giant'
p1725
F4.858101747362184
sS'northern'
p1726
F5.59925814710849
sS'waiting'
p1727
F5.956714036030293
sS'worthy'
p1728
F5.498827797558522
sS'pretty'
p1729
F3.2736255809538313
sS'factor'
p1730
F6.055154108843546
sS'crux bulge'
p1731
F6.46061921695171
sS'moderate terrain'
p1732
F7.103335543884764
sS'proximity'
p1733
F6.220381232278201
sS'boulder'
p1734
F2.0965327209453117
sS'great pitch'
p1735
F6.825952223633557
sS'hit'
p1736
F4.6075592218598596
sS'gains'
p1737
F5.460050726076807
sS'albeit'
p1738
F6.269001919284275
sS'dependent'
p1739
F5.5794198048888255
sS'gets steeper'
p1740
F6.789362776201266
sS'sunny'
p1741
F4.88895478954882
sS'trees'
p1742
F4.061940552025535
sS'famous'
p1743
F6.170784291138829
sS'feels'
p1744
F4.879155156560016
sS'steep bulge'
p1745
F6.482406571136618
sS'big hands'
p1746
F6.958596698239852
sS'face ledge'
p1747
F10.52106222749813
sS'ground fall'
p1748
F6.65508316057139
sS'open book'
p1749
F5.744041784583379
sS'chimney'
p1750
F3.1592104189960915
sS'black streak'
p1751
F5.780487404503836
sS'remove'
p1752
F7.055326324698403
sS'wall gets'
p1753
F6.8704039862043915
sS'common'
p1754
F5.92594237736354
sS'activity'
p1755
F6.783392609214761
sS'obscure'
p1756
F5.725271681901389
sS'river'
p1757
F4.631491988071488
sS'groundfall'
p1758
F7.039822138162438
sS'steep dihedral'
p1759
F7.188857717322926
sS'delicately'
p1760
F6.509193887100268
sS'set'
p1761
F3.5168610502477406
sS'art'
p1762
F6.80141111471744
sS'great holds'
p1763
F5.908420026671338
sS'touch'
p1764
F5.7335704847160835
sS'individual'
p1765
F6.980102903460816
sS'sea'
p1766
F6.170784291138829
sS'little tricky'
p1767
F6.844761555591053
sS'sport routes'
p1768
F5.0508946040234335
sS'pitch routes'
p1769
F6.402025052685658
sS'arm'
p1770
F6.227183979600953
sS'locals'
p1771
F5.983100791203489
sS'barn'
p1772
F6.9101443148539055
sS'practice'
p1773
F5.474416495878841
sS'stance'
p1774
F3.6598745843323273
sS'visiting'
p1775
F6.589236594773804
sS'distinctive'
p1776
F6.604051680558944
sS'easily identified'
p1777
F7.119864845835974
sS'various'
p1778
F5.383794282468508
sS'little dirty'
p1779
F6.354397003696403
sS'warm harder'
p1780
F11.90735658861802
sS'numerous'
p1781
F5.388209300677625
sS'available'
p1782
F5.137714611765517
sS'solo'
p1783
F5.285950936853886
sS'historical'
p1784
F6.52745923507756
sS'missing'
p1785
F6.161153398077867
sS'foot work'
p1786
F6.65508316057139
sS'attention'
p1787
F5.287283382087664
sS'short dihedral'
p1788
F6.883476067771744
sS'slab small'
p1789
F9.827915046938184
sS'rest ledge'
p1790
F6.876918667225585
sS'cryptic'
p1791
F6.6446663997131346
sS'reverse'
p1792
F6.708859557352195
sS'mega'
p1793
F6.362179144138458
sS'large boulders'
p1794
F6.513729042265659
sS'loose flake'
p1795
F7.017007460396266
sS'barely'
p1796
F5.645864904296978
sS'holds reach'
p1797
F8.77186237268887
sS'thinking'
p1798
F6.190328887211798
sS'improves'
p1799
F7.087075023012984
sS'undercling flake'
p1800
F7.039822138162438
sS'forgotten'
p1801
F6.783392609214761
sS'smearing'
p1802
F5.698766562521392
sS'leaning corner'
p1803
F6.579480419828439
sS'getting established'
p1804
F6.569818508916702
sS'pendulum'
p1805
F6.692420831009035
sS'bell'
p1806
F7.145182653820265
sS'simple'
p1807
F5.988462734344874
sS'sweet'
p1808
F4.668859747723656
sS'community'
p1809
F6.681609914904819
sS'hollow'
p1810
F5.002605818656182
sS'couple hard'
p1811
F7.995333583189875
sS'platform'
p1812
F5.881490614792706
sS'short crux'
p1813
F6.629241929387503
sS'slots'
p1814
F6.187044812010609
sS'finger sized'
p1815
F6.579480419828439
sS'easy moderate'
p1816
F8.243794942488375
sS'create'
p1817
F6.614051763893528
sS'overlook'
p1818
F6.426717665276029
sS'hitting'
p1819
F6.486821589345735
sS'secret'
p1820
F6.574637795352651
sS'dropping'
p1821
F6.759862111804567
sS'face slab'
p1822
F7.1711581402235245
sS'combine'
p1823
F6.4392964474828895
sS'dihedral crux'
p1824
F7.732969318722383
sS'territory'
p1825
F6.389903692153313
sS'blob'
p1826
F6.958596698239852
sS'resting'
p1827
F6.550770313946008
sS'roof crux'
p1828
F5.848233393036224
sS'crimps slopers'
p1829
F8.323837650161911
sS'packs'
p1830
F5.908420026671338
sS'north east'
p1831
F6.944511958358113
sS'gas'
p1832
F7.039822138162438
sS'gap'
p1833
F5.725271681901389
sS'best line'
p1834
F7.002081810179591
sS'feet long'
p1835
F6.331407485471704
sS'frozen'
p1836
F6.896721294521765
sS'straight'
p1837
F2.593467341013279
sS'tip'
p1838
F6.007459235035529
sS'large dihedral'
p1839
F7.009516788667109
sS'dusty'
p1840
F7.0790428513157195
sS'match'
p1841
F4.611621515868738
sS'leaning'
p1842
F3.8795537402477085
sS'fun'
p1843
F2.007475531676004
sS'shake'
p1844
F5.517115921552671
sS'loop'
p1845
F6.504679206745741
sS'pack'
p1846
F5.975111401170009
sS'seams'
p1847
F5.351999696807355
sS'hand jug'
p1848
F6.813606387811258
sS'arching'
p1849
F5.240399796188814
sS'backing'
p1850
F6.903410282672561
sS'overlooked'
p1851
F6.258382350456815
sS'leans'
p1852
F6.509193887100268
sS'encountered'
p1853
F5.549514322109921
sS'rim'
p1854
F5.563476154491689
sS'triple'
p1855
F6.546064422908596
sS'chasm'
p1856
F6.795368800261477
sS'ready'
p1857
F5.264869787250764
sS'rig'
p1858
F6.8197602533856365
sS'rib'
p1859
F5.7398400977296795
sS'chase'
p1860
F7.02455466603165
sS'tree ledge'
p1861
F6.2619096909747824
sS'liebacking'
p1862
F5.690750487533156
sS'feet ledge'
p1863
F11.90735658861802
sS'lengths'
p1864
F7.087075023012984
sS'watch loose'
p1865
F11.214209408058075
sS'shorter'
p1866
F4.61570037944356
sS'fingers hands'
p1867
F8.015536290507393
sS'overhanging hand'
p1868
F7.063169502159429
sS'corridor'
p1869
F5.547782719945643
sS'grand'
p1870
F6.223776821279339
sS'higher'
p1871
F3.8509298210950367
sS'development'
p1872
F5.544328485077555
sS'hueco'
p1873
F4.726525389573465
sS'mountain'
p1874
F4.417944505109301
sS'small pine'
p1875
F6.687000763539696
sS'negotiate'
p1876
F6.177256805644446
sS'flows'
p1877
F6.482406571136618
sS'moment'
p1878
F6.546064422908596
sS'cleaning'
p1879
F4.7772580784924426
sS'assortment'
p1880
F6.916924001839284
sS'stack'
p1881
F6.389903692153313
sS'aretes'
p1882
F6.01020272098128
sS'dark'
p1883
F4.747287381021894
sS'lower'
p1884
F3.1129863093951493
sS'older'
p1885
F6.410188363324819
sS'rules'
p1886
F7.002081810179591
sS'haul'
p1887
F5.692748490195829
sS'corner crux'
p1888
F6.965714166008716
sS'fun roof'
p1889
F7.055326324698403
sS'south east'
p1890
F6.6656095735583785
sS'indian creek'
p1891
F6.844761555591053
sS'edge'
p1892
F3.280233337829587
sS'landmark'
p1893
F6.987375662789896
sS'ledge traverse'
p1894
F6.346674957602493
sS'knot'
p1895
F6.736872593579869
sS'cragging'
p1896
F6.765693032115361
sS'guano'
p1897
F6.9375432890420194
sS'mountaineering'
p1898
F6.9101443148539055
sS'feet pull'
p1899
F7.38556801156898
sS'shape'
p1900
F6.234033321446528
sS'world'
p1901
F5.493897631450664
sS'regardless'
p1902
F6.609039222069984
sS'alternative'
p1903
F5.593808542340925
sS'gems'
p1904
F6.896721294521765
sS'cut'
p1905
F4.626659393233279
sS'alternate'
p1906
F5.72941247456742
sS'snag'
p1907
F6.759862111804567
sS'pillars'
p1908
F6.536718560490358
sS'jug haul'
p1909
F6.111298837852648
sS'plateau'
p1910
F6.896721294521765
sS'bit easier'
p1911
F6.52745923507756
sS'remaining'
p1912
F6.087273658265659
sS'surprised'
p1913
F6.522861525828931
sS'overhanging'
p1914
F3.050268453303068
sS'march'
p1915
F6.589236594773804
sS'big'
p1916
F2.416887599844971
sS'couple'
p1917
F3.1293387789198848
sS'sounding'
p1918
F6.742570614694507
sS'spires'
p1919
F6.220381232278201
sS'game'
p1920
F5.9804305626476095
sS'south facing'
p1921
F4.990641568264412
sS'abound'
p1922
F6.473634585063781
sS'delicate face'
p1923
F6.923749966909684
sS'crisp'
p1924
F6.708859557352195
sS'bit'
p1925
F2.803154812703505
sS'knock'
p1926
F7.02455466603165
sS'lost'
p1927
F5.223995642851746
sS'semi'
p1928
F5.310210886731369
sS'shaped'
p1929
F4.798294452930848
sS'pillar'
p1930
F4.216156491095157
sS'slabbing'
p1931
F7.017007460396266
sS'heads straight'
p1932
F7.087075023012984
sS'ignore'
p1933
F6.916924001839284
sS'routes wall'
p1934
F11.90735658861802
sS'provoking'
p1935
F6.084310693135001
sS'popular'
p1936
F4.203897540750846
sS'lieback'
p1937
F4.501860925418548
sS'slopers'
p1938
F4.024287237312267
sS'spring'
p1939
F4.93756591871643
sS'small positive'
p1940
F8.1006940988477
sS'trends'
p1941
F5.931005679320086
sS'sight'
p1942
F5.883908995656988
sS'surmount'
p1943
F5.272723230756335
sS'runouts'
p1944
F6.040888531684724
sS'gradually'
p1945
F5.936094748827558
sS'rarely'
p1946
F5.621358494109156
sS'wall faces'
p1947
F6.8321827733841936
sS'bit run'
p1948
F7.292236071776761
sS'prow'
p1949
F4.656011605245807
sS'connecting'
p1950
F7.02455466603165
sS'eliminate'
p1951
F6.142165485833176
sS'tends'
p1952
F5.731489318512259
sS'bulgy'
p1953
F6.765693032115361
sS'temple'
p1954
F7.31223673848343
sS'minimal'
p1955
F6.276144806796655
sS'ladder'
p1956
F5.612090587178375
sS'varying'
p1957
F6.536718560490358
sS'run'
p1958
F3.9205116874566377
sS'fun slab'
p1959
F6.71439973772781
sS'lakes'
p1960
F6.649861216590239
sS'stem'
p1961
F4.220735253673401
sS'step'
p1962
F3.2879678848871134
sS'low crux'
p1963
F6.418418862461334
sS'dolomite'
p1964
F7.4187202188858805
sS'slightly overhung'
p1965
F6.154783949792387
sS'intense'
p1966
F6.863931471698773
sS'faith'
p1967
F6.980102903460816
sS'holds face'
p1968
F9.604771495623975
sS'page'
p1969
F5.7482612001260875
sS'deserves'
p1970
F6.029620806838381
sS'range'
p1971
F4.120804782189309
sS'easy chimney'
p1972
F6.777457873694947
sS'classics'
p1973
F5.339278677206044
sS'small roofs'
p1974
F6.634357030054273
sS'block'
p1975
F3.3273764091030182
sS'seeing'
p1976
F6.783392609214761
sS'significant'
p1977
F6.174015311720275
sS'trad lines'
p1978
F6.406098378073294
sS'downhill'
p1979
F5.3721153176043615
sS'long sustained'
p1980
F7.5506477619284285
sS'span'
p1981
F6.923749966909684
sS'harder routes'
p1982
F6.541380573596169
sS'north ridge'
p1983
F6.8511107832697125
sS'placing'
p1984
F5.004613851459427
sS'lone'
p1985
F5.869485668695883
sS'fast'
p1986
F6.294228482229951
sS'feel free'
p1987
F6.406098378073294
sS'doubt'
p1988
F6.234033321446528
sS'mantles'
p1989
F6.736872593579869
sS'opens'
p1990
F6.066714931244622
sS'mountains'
p1991
F5.903469521511481
sS'lowest point'
p1992
F6.8704039862043915
sS'easier face'
p1993
F6.965714166008716
sS'atop'
p1994
F4.813121742693265
sS'lieback flake'
p1995
F7.4647053321277035
sS'single pitch'
p1996
F5.645864904296978
sS'link'
p1997
F4.817279752841928
sS'sick'
p1998
F6.1837714866656395
sS'line'
p1999
F2.3855687906397947
sS'pain'
p2000
F6.46061921695171
sS'posted'
p2001
F6.164353400808538
sS'toprope'
p2002
F4.961342597518793
sS'obvious splitter'
p2003
F7.243917494505953
sS'sidepulls'
p2004
F4.644026971141184
sS'groove'
p2005
F4.378487331975769
sS'called'
p2006
F4.5555567195602436
sS'cruxy'
p2007
F4.974908697045512
sS'worthwhile'
p2008
F5.474416495878841
sS'mindful'
p2009
F7.02455466603165
sS'solid grade'
p2010
F11.214209408058075
sS'defined'
p2011
F6.301554522322023
sS'amphitheater'
p2012
F6.279735474927383
sS'single'
p2013
F3.9256233019261346
sS'warning'
p2014
F6.532078180933856
sS'easiest line'
p2015
F7.095172233245603
sS'obtuse'
p2016
F7.047544184256348
sS'steeper'
p2017
F4.373662878769388
sS'rainbow'
p2018
F6.930622846197446
sS'large pine'
p2019
F6.1837714866656395
sS'wall crux'
p2020
F7.918372542053746
sS'endurance'
p2021
F5.593808542340925
sS'backs'
p2022
F6.560249057900552
sS'discontinuous cracks'
p2023
F6.8197602533856365
sS'points'
p2024
F5.825137678241574
sS'nice'
p2025
F2.540696462386884
sS'quite fun'
p2026
F6.965714166008716
sS'featured face'
p2027
F6.105238213240957
sS'cranking'
p2028
F6.754064994120242
sS'drag'
p2029
F4.417944505109301
sS'webbing'
p2030
F5.479251315933424
sS'desert'
p2031
F5.498827797558522
sS'hand hold'
p2032
F6.8197602533856365
sS'furthest'
p2033
F5.619498028456236
sS'land'
p2034
F5.170389630616165
sS'mantel'
p2035
F4.86245147148865
sS'overlooking'
p2036
F6.987375662789896
sS'virtually'
p2037
F7.002081810179591
sS'outing'
p2038
F5.859984409571743
sS'holes'
p2039
F6.055154108843546
sS'summit'
p2040
F3.3538314679543926
sS'fresh'
p2041
F6.765693032115361
sS'having'
p2042
F5.362006928283601
sS'easy face'
p2043
F5.855267419693604
sS'stones'
p2044
F6.599088891216816
sS'hands feet'
p2045
F9.50946131581965
sS'dihedral roof'
p2046
F8.352008527128607
sS'hooks'
p2047
F5.452158025277898
sS'resistance'
p2048
F5.537455605789793
sS'small medium'
p2049
F7.956112870036593
sS'enjoyable'
p2050
F4.564577399286175
sS'windy'
p2051
F5.938649028632654
sS'softer'
p2052
F7.234527754156114
sS'intricate'
p2053
F6.609039222069984
sS'issues'
p2054
F6.47801095966358
sS'compact'
p2055
F7.136671964152356
sS'loose block'
p2056
F6.482406571136618
sS'easy ground'
p2057
F5.670986998414316
sS'cruiser'
p2058
F6.546064422908596
sS'pretty easy'
p2059
F6.244396108482074
sS'young'
p2060
F6.754064994120242
sS'send'
p2061
F5.537455605789793
sS'intensive'
p2062
F6.426717665276029
sS'helps'
p2063
F6.01847863028514
sS'friendly'
p2064
F6.072545851555415
sS'sent'
p2065
F6.157963602709767
sS'overlaps'
p2066
F6.290585490951449
sS'garden'
p2067
F5.943777244999574
sS'wave'
p2068
F5.704821071430098
sS'balls'
p2069
F6.759862111804567
sS'trough'
p2070
F6.283339082430682
sS'entire'
p2071
F4.878269024468358
sS'magic'
p2072
F6.754064994120242
sS'stiff'
p2073
F5.859984409571743
sS'ledge large'
p2074
F9.604771495623975
sS'gets little'
p2075
F6.916924001839284
sS'finger hand'
p2076
F6.876918667225585
sS'try'
p2077
F4.3322848891104595
sS'car'
p2078
F5.682798159342661
sS'refer'
p2079
F7.055326324698403
sS'ride'
p2080
F5.750377603032465
sS'hand gaston'
p2081
F7.095172233245603
sS'smaller'
p2082
F4.442846753981493
sS'finger pockets'
p2083
F6.335202556440256
sS'soul'
p2084
F6.890076751803096
sS'jump'
p2085
F5.142317611837479
sS'perched'
p2086
F6.157963602709767
sS'today'
p2087
F6.358280503722801
sS'uncomfortable'
p2088
F7.009516788667109
sS'chockstone'
p2089
F5.279315212438488
sS'grooves'
p2090
F6.546064422908596
sS'loose flakes'
p2091
F6.8704039862043915
sS'juggy'
p2092
F4.339493983154139
sS'power'
p2093
F4.421864980587266
sS'giving'
p2094
F6.406098378073294
sS'reaching'
p2095
F4.723485873555568
sS'obvious large'
p2096
F6.765693032115361
sS'consistently'
p2097
F6.719970782777265
sS'rotten'
p2098
F5.456886166473844
sS'indian'
p2099
F5.78705916966707
sS'bird'
p2100
F5.9804305626476095
sS'slabs'
p2101
F4.453794716974647
sS'body'
p2102
F4.839184588229979
sS'led'
p2103
F5.289953610643543
sS'chose'
p2104
F6.45631813505232
sS'degree'
p2105
F5.688756468926291
sS'leg'
p2106
F6.422559655127365
sS'sloping shelf'
p2107
F7.16242446025477
sS'punch'
p2108
F5.665133323162856
sS'desired'
p2109
F6.414295145277472
sS'explore'
p2110
F6.504679206745741
sS'choss'
p2111
F5.081896552362713
sS'let'
p2112
F4.661701521023485
sS'safer'
p2113
F6.422559655127365
sS'extreme'
p2114
F6.45631813505232
sS'east ridge'
p2115
F6.777457873694947
sS'great'
p2116
F2.3368274534033087
sS'technical'
p2117
F3.5755295841819628
sS'larger'
p2118
F4.9575001336172475
sS'pitch fun'
p2119
F8.473369384132875
sS'leaving'
p2120
F5.7717916975362815
sS'suggests'
p2121
F6.546064422908596
sS'large tree'
p2122
F5.855267419693604
sS'shaded'
p2123
F5.581207115462921
sS'composed'
p2124
F6.742570614694507
sS'pulling roof'
p2125
F8.68848076374982
sS'shade afternoon'
p2126
F8.816314135259704
sS'fun face'
p2127
F5.956714036030293
sS'danger'
p2128
F6.8321827733841936
sS'pitch'
p2129
F2.4641599864738355
sS'place small'
p2130
F7.119864845835974
sS'private'
p2131
F6.084310693135001
sS'rope stretcher'
p2132
F7.687848883441913
sS'improbable'
p2133
F6.058031808671161
sS'slightly harder'
p2134
F6.486821589345735
sS'boasts'
p2135
F6.987375662789896
sS'talus'
p2136
F5.497181706651854
sS'pitch easy'
p2137
F7.748473505258349
sS'obvious chimney'
p2138
F6.6656095735583785
sS'standing'
p2139
F4.589480389991525
sS'confidence'
p2140
F6.783392609214761
sS'crap'
p2141
F6.584346609479613
sS'stream'
p2142
F5.905941710656871
sS'remains'
p2143
F5.845899669690003
sS'throw'
p2144
F4.399117813939357
sS'crux short'
p2145
F8.575152078442816
sS'crux high'
p2146
F8.649260050596538
sS'crag'
p2147
F3.515046579348473
sS'awesome'
p2148
F4.117074207914538
sS'sort'
p2149
F5.227757402773637
sS'sister'
p2150
F6.795368800261477
sS'opposing'
p2151
F6.01020272098128
sS'sharply'
p2152
F7.2068762228256045
sS'baby'
p2153
F6.258382350456815
sS'tad'
p2154
F6.52745923507756
sS'crosses'
p2155
F6.339012084856924
sS'locks'
p2156
F5.232795196803594
sS'tunnel'
p2157
F5.5669972848902685
sS'challenge'
p2158
F5.304768696428684
sS'saddle'
p2159
F5.59925814710849
sS'arches'
p2160
F6.464938878096227
sS'obvious'
p2161
F2.5975329381568875
sS'drill'
p2162
F6.294228482229951
sS'smear'
p2163
F5.398587451646339
sS'meet'
p2164
F5.983100791203489
sS'drops'
p2165
F6.331407485471704
sS'proof'
p2166
F6.987375662789896
sS'control'
p2167
F6.52745923507756
sS'really nice'
p2168
F6.021252557167864
sS'slip'
p2169
F6.687000763539696
sS'links'
p2170
F6.279735474927383
sS'process'
p2171
F6.944511958358113
sS'lock'
p2172
F5.392643897745491
sS'flaring'
p2173
F5.375022296395671
sS'pieces'
p2174
F5.079727354115168
sS'high'
p2175
F2.6493695631744845
sS'pulling'
p2176
F3.9818376088310945
sS'bend'
p2177
F7.032159265416869
sS'fun moderate'
p2178
F6.71439973772781
sS'triangle'
p2179
F5.969820383535594
sS'tan'
p2180
F6.397968251990044
sS'bowl'
p2181
F5.9593215994373745
sS'skirt'
p2182
F6.771558151567759
sS'mental crux'
p2183
F7.119864845835974
sS'curving'
p2184
F6.187044812010609
sS'varied'
p2185
F4.8273300886954305
sS'busy'
p2186
F6.102221619701532
sS'short corner'
p2187
F6.389903692153313
sS'holds'
p2188
F2.037684384576623
sS'formations'
p2189
F5.638260304911759
sS'varies'
p2190
F6.135915465488004
sS'forest'
p2191
F5.518795183072391
sS'instead'
p2192
F4.448017693397725
sS'profile'
p2193
F6.972882655487329
sS'tension'
p2194
F5.832010557529336
sS'highly featured'
p2195
F6.624152859880032
sS'hand edge'
p2196
F6.105238213240957
sS'blocks'
p2197
F4.190450453319632
sS'watch'
p2198
F4.513478298510265
sS'low roof'
p2199
F6.327626762631798
sS'blocky'
p2200
F4.39473904394351
sS'mixed'
p2201
F4.3588006094481475
sS'short headwall'
p2202
F7.17996876990568
sS'steeply'
p2203
F6.9101443148539055
sS'shade day'
p2204
F11.90735658861802
sS'fits'
p2205
F7.002081810179591
sS'laybacks'
p2206
F6.381903649486237
sS'crux sequence'
p2207
F6.312645209016181
sS'light'
p2208
F5.302058667669819
sS'sit'
p2209
F2.855894721709326
sS'lines'
p2210
F3.648157225951739
sS'mantle ledge'
p2211
F8.96291760945158
sS'scoop'
p2212
F5.257077540030599
sS'fun movement'
p2213
F6.509193887100268
sS'featured slab'
p2214
F6.8321827733841936
sS'feet summit'
p2215
F11.90735658861802
sS'wall pitch'
p2216
F7.86430532078347
sS'longest'
p2217
F5.655452705452132
sS'stoppers'
p2218
F5.8003337008757665
sS'steepening'
p2219
F6.024034200129742
sS'cruise'
p2220
F5.201717493758018
sS'brittle'
p2221
F6.896721294521765
sS'bunch'
p2222
F5.784863779103635
sS'perfect'
p2223
F4.099846546401828
sS'outer'
p2224
F6.795368800261477
sS'wilderness'
p2225
F6.157963602709767
sS'willing'
p2226
F6.681609914904819
sS'degrees'
p2227
F6.111298837852648
sS'choose'
p2228
F5.0657411121404285
sS'orange'
p2229
F4.831547724639633
sS'covered'
p2230
F4.832393390651977
sS'crowds'
p2231
F5.590191901870736
sS'crux traverse'
p2232
F7.58986847508171
sS'crash'
p2233
F6.708859557352195
sS'pull lip'
p2234
F9.961446439562707
sS'dan'
p2235
F6.987375662789896
sS'angle terrain'
p2236
F7.2252253614938
sS'dike'
p2237
F5.12403138801406
sS'corner face'
p2238
F8.078715192128925
sS'cutting'
p2239
F6.504679206745741
sS'snake'
p2240
F6.435085914946546
sS'stout'
p2241
F5.577635683095324
sS'hands'
p2242
F3.0371150213187494
sS'shallow groove'
p2243
F6.987375662789896
sS'traverses'
p2244
F4.808980950027234
sS'day'
p2245
F3.5900788223967854
sS'landings'
p2246
F5.253204068434802
sS'trad'
p2247
F3.8084098396746806
sS'holds lead'
p2248
F6.708859557352195
sS'obvious line'
p2249
F5.373567750684677
sS'scenic'
p2250
F6.294228482229951
sS'identified'
p2251
F6.01571237679225
sS'spur'
p2252
F6.958596698239852
sS'merge'
p2253
F6.965714166008716
sS'slide'
p2254
F6.272566985448771
sS'crossing'
p2255
F5.7109124608235
sS'beneath'
p2256
F4.9565418201754365
sS'eases'
p2257
F4.499432266058421
sS'upward'
p2258
F5.364884628111216
sS'ratings'
p2259
F6.308934629619646
sS'parallel cracks'
p2260
F6.980102903460816
sS'beginner'
p2261
F5.201717493758018
sS'doing'
p2262
F4.244888773417783
sS'faces west'
p2263
F6.777457873694947
sS'chunk'
p2264
F6.129704265395364
sS'inverted'
p2265
F6.844761555591053
sS'books'
p2266
F6.584346609479613
sS'static'
p2267
F6.385895670755774
sS'jagged'
p2268
F6.594150609576233
sS'patch'
p2269
F6.703349901541225
sS'wander'
p2270
F5.335074045924013
sS'sandy'
p2271
F5.054057495431942
sS'better routes'
p2272
F6.916924001839284
sS'huck'
p2273
F6.783392609214761
sS'shallow'
p2274
F3.755158572756234
sS'afternoon sun'
p2275
F6.157963602709767
sS'bad'
p2276
F3.7571773189356947
sS'trickier'
p2277
F7.055326324698403
sS'traversed'
p2278
F6.362179144138458
sS'cause'
p2279
F6.258382350456815
sS'red'
p2280
F4.268676764741908
sS'shut'
p2281
F6.283339082430682
sS'spot'
p2282
F4.198496987570846
sS'pine tree'
p2283
F4.906110966548544
sS'diagonal'
p2284
F4.565224858033299
sS'temps'
p2285
F6.65508316057139
sS'obvious jug'
p2286
F6.447771074473861
sS'splitter finger'
p2287
F7.009516788667109
sS'shortest'
p2288
F6.8704039862043915
sS'flat ledge'
p2289
F6.759862111804567
sS'scary'
p2290
F4.6412278090615695
sS'yard'
p2291
F6.71439973772781
sS'scars'
p2292
F7.119864845835974
sS'length'
p2293
F4.559412765469333
sS'sloping ledge'
p2294
F5.315682856609362
sS'face north'
p2295
F7.995333583189875
sS'south'
p2296
F2.9797770847745504
sS'vertical face'
p2297
F5.081896552362713
sS'finest'
p2298
F6.2619096909747824
sS'technical crux'
p2299
F5.864723754935639
sS'late afternoon'
p2300
F6.692420831009035
sS'widely'
p2301
F6.8197602533856365
sS'powerful'
p2302
F4.108833534992814
sS'bars'
p2303
F6.972882655487329
sS'reaches'
p2304
F4.970042507394339
sS'tier'
p2305
F5.479251315933424
sS'face cracks'
p2306
F8.506159206955864
sS'fingercrack'
p2307
F6.574637795352651
sS'reached'
p2308
F5.119511606308441
sS'quality'
p2309
F3.092729033307324
sS'killer'
p2310
F5.750377603032465
sS'ancient'
p2311
F6.354397003696403
sS'monkey'
p2312
F6.01571237679225
sS'unknown'
p2313
F5.258372038593245
sS'laps'
p2314
F6.825952223633557
sS'slightly vertical'
p2315
F10.808744299949911
sS'intermediate'
p2316
F5.741938734386601
sS'ankle'
p2317
F6.9101443148539055
sS'rated'
p2318
F4.959419520003052
sS'perfectly'
p2319
F6.435085914946546
sS'final'
p2320
F3.67411908791275
sS'painful'
p2321
F6.035238799142604
sS'face large'
p2322
F10.29791867618392
sS'arete work'
p2323
F7.234527754156114
sS'low angle'
p2324
F4.185121843908413
sS'pretty fun'
p2325
F6.01020272098128
sS'shelf'
p2326
F4.488575705867227
sS'exactly'
p2327
F6.269001919284275
sS'lists'
p2328
F6.71439973772781
sS'dyno'
p2329
F4.61570037944356
sS'natural'
p2330
F4.8256480025124455
sS'july'
p2331
F6.509193887100268
sS'haven'
p2332
F5.769629534531786
sS'waist'
p2333
F6.748301289403491
sS'steel'
p2334
F6.46061921695171
sS'long reach'
p2335
F5.413602748766334
sS'south platte'
p2336
F7.4414484699634365
sS'split'
p2337
F5.035228487279034
sS'bother'
p2338
F6.863931471698773
sS'bit runout'
p2339
F7.2823837753337495
sS'water groove'
p2340
F6.414295145277472
sS'liebacks'
p2341
F6.45631813505232
sS'sun day'
p2342
F11.214209408058075
sS'appealing'
p2343
F6.765693032115361
sS'lower angle'
p2344
F5.37939867099547
sS'providing'
p2345
F6.807490160793822
sS'steep'
p2346
F2.350805835750988
sS'blocky terrain'
p2347
F6.980102903460816
sS'bet'
p2348
F7.1282330955064905
sS'false'
p2349
F6.681609914904819
sS'lightly'
p2350
F6.346674957602493
sS'hard grade'
p2351
F10.52106222749813
sS'gently'
p2352
F5.8003337008757665
sS'curves'
p2353
F6.731206856044191
sS'comfortable'
p2354
F5.160944460044647
sS'gentle'
p2355
F6.9375432890420194
sS'facing corner'
p2356
F3.3833864129227593
sS'face holds'
p2357
F4.712169268439312
sS'linked'
p2358
F6.258382350456815
sS'viewed'
p2359
F6.619089557923485
sS'complete'
p2360
F5.663189687954285
sS'screw'
p2361
F7.153766397511656
sS'angle'
p2362
F3.379025652791327
sS'small overlap'
p2363
F6.495710536762981
sS'able'
p2364
F4.959419520003052
sS'west face'
p2365
F4.4572770188105215
sS'mix'
p2366
F5.488991652681809
sS'face arete'
p2367
F6.903410282672561
sS'scree'
p2368
F6.350528526918483
sS'techniques'
p2369
F6.370022321599484
sS'couple small'
p2370
F7.576623248331689
sS'vegetation'
p2371
F6.075474111334503
sS'progressively'
p2372
F6.117396417720767
sS'facing flake'
p2373
F5.222744860950093
sS'black water'
p2374
F6.8321827733841936
sS'short pitches'
p2375
F7.16242446025477
sS'runout'
p2376
F4.205704225975795
sS'placement'
p2377
F4.953672377747483
sS'roof easier'
p2378
F8.473369384132875
sS'quality routes'
p2379
F6.584346609479613
sS'big jug'
p2380
F6.2374756656375006
sS'pipe'
p2381
F7.1711581402235245
sS'moderate routes'
p2382
F6.25486740834937
sS'affair'
p2383
F7.136671964152356
sS'recess'
p2384
F6.987375662789896
sS'bulging'
p2385
F5.479251315933424
sS'highballs'
p2386
F6.725573038325935
sS'huge jug'
p2387
F6.452035473260319
sS'bring'
p2388
F3.8720776774733534
sS'long runner'
p2389
F7.039822138162438
sS'easy mantle'
p2390
F6.825952223633557
sS'chicken'
p2391
F5.588388474871586
sS'trivial'
p2392
F7.039822138162438
sS'shoes'
p2393
F5.696756511593367
sS'afternoon shade'
p2394
F6.397968251990044
sS'inspiring'
p2395
F6.614051763893528
sS'squeeze'
p2396
F4.7772580784924426
sS'based'
p2397
F6.377927501106597
sS'jam'
p2398
F4.1191450307709445
sS'summit ridge'
p2399
F6.422559655127365
sS'creek canyon'
p2400
F6.883476067771744
sS'local'
p2401
F5.2766732029756485
sS'ridgeline'
p2402
F6.838452386397789
sS'cube'
p2403
F7.009516788667109
sS'small bulge'
p2404
F5.70279882604933
sS'canyons'
p2405
F7.009516788667109
sS'overall'
p2406
F5.2004942520152735
sS'lucky'
p2407
F6.670914625788071
sS'bear'
p2408
F5.383794282468508
sS'wiggle'
p2409
F7.2068762228256045
sS'joins'
p2410
F5.784863779103635
sS'gulch'
p2411
F6.8197602533856365
sS'years'
p2412
F4.416827186557309
sS'soloed'
p2413
F6.43089303668651
sS'steepness'
p2414
F6.342836181295327
sS'gray'
p2415
F5.832010557529336
sS'places'
p2416
F4.938506210276072
sS'course'
p2417
F5.754623893913916
sS'large loose'
p2418
F7.136671964152356
sS'small bush'
p2419
F7.17996876990568
sS'calling'
p2420
F6.844761555591053
sS'wish'
p2421
F5.928470823716898
sS'grab'
p2422
F4.6531787421615025
sS'terrace'
p2423
F6.290585490951449
sS'hand sidepull'
p2424
F5.92342030793083
sS'small nuts'
p2425
F6.783392609214761
sS'farthest'
p2426
F6.069626141452081
sS'sharp crimps'
p2427
F6.550770313946008
sS'facing wall'
p2428
F5.382326930774559
sS'horns'
p2429
F6.736872593579869
sS'terrain'
p2430
F3.816341546907489
sS'finger cracks'
p2431
F6.2478743728584
sS'cairns'
p2432
F7.1711581402235245
sS'long sling'
p2433
F6.385895670755774
sS'desperate'
p2434
F5.46322533191758
sS'testpiece'
p2435
F6.541380573596169
sS'packed'
p2436
F6.759862111804567
sS'closer'
p2437
F5.7109124608235
sS'wire'
p2438
F6.111298837852648
sS'junky'
p2439
F6.994701702881969
sS'superb'
p2440
F5.661249823136457
sS'small holds'
p2441
F5.131990497681629
sS'state'
p2442
F5.185930887827377
sS'difficulties'
p2443
F5.712951197513348
sS'face boulder'
p2444
F8.77186237268887
sS'closed'
p2445
F5.871875156093264
sS'horrible'
p2446
F6.52745923507756
sS'progress'
p2447
F6.161153398077867
sS'crux long'
p2448
F8.540060758631546
sS'hollow sounding'
p2449
F6.883476067771744
sS'handful'
p2450
F5.176338488135937
sS'ability'
p2451
F6.703349901541225
sS'opening'
p2452
F5.46322533191758
sS'buckets'
p2453
F6.354397003696403
sS'pumped'
p2454
F6.174015311720275
sS'ledge corner'
p2455
F10.808744299949911
sS'stemming corner'
p2456
F7.4414484699634365
sS'key'
p2457
F5.3322807480184
sS'butte'
p2458
F6.863931471698773
sS'optional'
p2459
F5.2429475682676125
sS'quite bit'
p2460
F6.154783949792387
sS'hits'
p2461
F6.393927842453039
sS'figured'
p2462
F6.923749966909684
sS'bouldery'
p2463
F4.284203520141118
sS'wall steep'
p2464
F8.41084902715154
sS'taking'
p2465
F5.495538320908123
sS'little harder'
p2466
F6.509193887100268
sS'ramp'
p2467
F3.697232183453754
sS'boulders'
p2468
F3.6185707781910916
sS'short steep'
p2469
F5.782673197723816
sS'april'
p2470
F6.783392609214761
sS'interesting'
p2471
F3.542382610179294
sS'finger lock'
p2472
F6.522861525828931
sS'wall'
p2473
F1.9994786877805995
sS'recognized'
p2474
F7.188857717322926
sS'sequences'
p2475
F5.886333239268494
sS'respect'
p2476
F6.335202556440256
sS'slab face'
p2477
F6.301554522322023
sS'easy terrain'
p2478
F5.520477269255376
sS'face steep'
p2479
F8.729302758270075
sS'pin'
p2480
F4.389292407384943
sS'low point'
p2481
F7.262965689476648
sS'decent'
p2482
F3.7158935372910937
sS'slight bulge'
p2483
F6.994701702881969
sS'obvious arete'
p2484
F6.708859557352195
sS'pitch long'
p2485
F8.96291760945158
sS'highball'
p2486
F5.040423304156138
sS'slowly'
p2487
F6.362179144138458
sS'treat'
p2488
F6.736872593579869
sS'curtain'
p2489
F6.3201079302177705
sS'utilizing'
p2490
F6.058031808671161
sS'spacious'
p2491
F6.546064422908596
sS'angled'
p2492
F4.9896509787827155
sS'painted'
p2493
F6.560249057900552
sS'face'
p2494
F1.3646238126713122
sS'crappy'
p2495
F6.426717665276029
sS'angles'
p2496
F5.556470871903281
sS'kicks'
p2497
F6.532078180933856
sS'slight overhang'
p2498
F6.8197602533856365
sS'face roof'
p2499
F9.268299259002761
sS'small overhang'
p2500
F5.5255405712119225
sS'multi'
p2501
F5.556470871903281
sS'fist sized'
p2502
F7.087075023012984
sS'unlike'
p2503
F6.123531406288283
sS'super fun'
p2504
F5.59925814710849
sS'edging'
p2505
F5.879078068387322
sS'harder'
p2506
F3.2326469593267997
sS'gets sun'
p2507
F6.708859557352195
sS'value'
p2508
F5.7211479647175265
sS'choices'
p2509
F6.844761555591053
sS'chalk'
p2510
F5.539169402267528
sS'stunning'
p2511
F6.102221619701532
sS'intro'
p2512
F6.532078180933856
sS'overhung face'
p2513
F6.890076751803096
sS'wild'
p2514
F4.707678242926848
sS'ultra'
p2515
F6.418418862461334
sS'fun easy'
p2516
F6.279735474927383
sS'licheny'
p2517
F6.777457873694947
sS'layer'
p2518
F6.944511958358113
sS'warm ups'
p2519
F6.649861216590239
sS'holds arete'
p2520
F10.29791867618392
sS'site'
p2521
F5.778306378557475
sS'hardware'
p2522
F6.513729042265659
sS'chickenhead'
p2523
F6.844761555591053
sS'swinging'
p2524
F6.9375432890420194
sS'junction'
p2525
F6.863931471698773
sS'sits'
p2526
F4.951763980221723
sS'line resistance'
p2527
F11.90735658861802
sS'cross'
p2528
F4.644727987643779
sS'tr'
p2529
F4.261958889189387
sS'parts'
p2530
F5.864723754935639
sS'northwest'
p2531
F5.078644516976336
sS'largest'
p2532
F5.461636769232442
sS'party'
p2533
F5.168019961260846
sS'north face'
p2534
F4.680420570124731
sS'gets'
p2535
F3.3849768705144827
sS'difficult'
p2536
F3.349213410872829
sS'ball'
p2537
F5.678845585026838
sS'receives'
p2538
F6.402025052685658
sS'arete crux'
p2539
F7.0790428513157195
sS'effect'
p2540
F7.063169502159429
sS'beast'
p2541
F6.731206856044191
sS'dust'
p2542
F6.896721294521765
sS'frequently'
p2543
F6.80141111471744
sS'whale'
p2544
F6.742570614694507
sS'wide hands'
p2545
F6.227183979600953
sS'center'
p2546
F3.7623871715301456
sS'variety'
p2547
F4.603513363340316
sS'thought'
p2548
F4.512249042055535
sS'sheer'
p2549
F6.795368800261477
sS'steep terrain'
p2550
F6.731206856044191
sS'tower'
p2551
F4.037190642148175
sS'sets'
p2552
F6.230602786349738
sS'position'
p2553
F4.708425347929847
sS'trad sport'
p2554
F7.829819144712301
sS'usual'
p2555
F6.2478743728584
sS'taller'
p2556
F5.642055375880311
sS'gully'
p2557
F3.652827706678276
sS'heavily'
p2558
F6.145305205837843
sS'increasingly'
p2559
F6.294228482229951
sS'oak'
p2560
F5.582997626236709
sS'accurate'
p2561
F6.736872593579869
sS'obvious corner'
p2562
F6.358280503722801
sS'generous'
p2563
F6.876918667225585
sS'tight'
p2564
F5.048791553826655
sS'east wall'
p2565
F7.302186402629929
sS'topout'
p2566
F4.04178483093323
sS'point'
p2567
F3.573845879635079
sS'sky'
p2568
F5.985778168974205
sS'deposits'
p2569
F7.02455466603165
sS'bench'
p2570
F6.599088891216816
sS'slightly overhanging'
p2571
F4.742636209846163
sS'extends'
p2572
F6.8704039862043915
sS'attractive'
p2573
F6.569818508916702
sS'wet'
p2574
F4.80650467967397
sS'nice warm'
p2575
F6.838452386397789
sS'kick'
p2576
F6.541380573596169
sS'knob'
p2577
F5.1621202391336585
sS'footholds'
p2578
F5.606570793954776
sS'ledge'
p2579
F2.0143740207270397
sS'ample'
p2580
F6.574637795352651
sS'checking'
p2581
F6.522861525828931
sS'crux'
p2582
F1.6371794069251349
sS'increases'
p2583
F7.017007460396266
sS'hand traverse'
p2584
F5.561720227789425
sS'press'
p2585
F6.2374756656375006
sS'intersection'
p2586
F6.8197602533856365
sS'prominent'
p2587
F4.307454629409522
sS'overhanging dihedral'
p2588
F7.039822138162438
sS'large sloping'
p2589
F6.980102903460816
sS'helpful'
p2590
F5.789259390576673
sS'inviting'
p2591
F7.119864845835974
sS'sizes'
p2592
F6.308934629619646
sS'bulge'
p2593
F3.0053092429977433
sS'alternatively'
p2594
F6.1837714866656395
sS'unprotected'
p2595
F5.204168475377157
sS'sized'
p2596
F4.422987945331889
sS'hosts'
p2597
F5.636368156759721
sS'james'
p2598
F7.039822138162438
sS'works'
p2599
F5.4776371105788835
sS'soft'
p2600
F5.164475952826117
sS'knobby face'
p2601
F7.262965689476648
sS'heel'
p2602
F4.2754400755467685
sS'poor'
p2603
F4.700979297145768
sS'sequence'
p2604
F4.241603156756322
sS'drilled'
p2605
F5.602907786196039
sS'hair'
p2606
F6.958596698239852
sS'large ledge'
p2607
F4.454954137394382
sS'repeat'
p2608
F6.6656095735583785
sS'warmer'
p2609
F6.783392609214761
sS'proper'
p2610
F4.951763980221723
sS'lip roof'
p2611
F10.115597119389966
sS'east south'
p2612
F9.42244993883002
sS'moderates'
p2613
F5.843571379930412
sS'lead'
p2614
F3.078130233886171
sS'broad'
p2615
F6.102221619701532
sS'avoid'
p2616
F4.268676764741908
sS'lean'
p2617
F6.21362444981532
sS'straight roof'
p2618
F11.90735658861802
sS'overlap'
p2619
F4.941332401511907
sS'heel toe'
p2620
F6.972882655487329
sS'splitter hand'
p2621
F7.153766397511656
sS'chains'
p2622
F3.7147861174658465
sS'leader'
p2623
F4.968102642576512
sS'facing slab'
p2624
F7.136671964152356
sS'hot summer'
p2625
F7.374757095464765
sS'faces north'
p2626
F7.145182653820265
sS'cracks face'
p2627
F8.649260050596538
sS'east facing'
p2628
F5.623222427547218
sS'southwest face'
p2629
F6.670914625788071
sS'stellar'
p2630
F5.272723230756335
sS'mixed routes'
p2631
F6.8321827733841936
sS'host'
p2632
F6.43089303668651
sS'variation'
p2633
F3.8834765958831423
sS'offset'
p2634
F6.142165485833176
sS'steep overhanging'
p2635
F7.430019774139814
sS'panel'
p2636
F6.742570614694507
sS'gained'
p2637
F6.624152859880032
sS'chickenheads'
p2638
F6.550770313946008
sS'quarter'
p2639
F6.731206856044191
sS'rare'
p2640
F6.522861525828931
sS'extension'
p2641
F5.8003337008757665
sS'getting'
p2642
F3.6497116304097927
sS'column'
p2643
F6.240929900505588
sS'cleans'
p2644
F6.857500581368483
sS'flake'
p2645
F2.8188449250069714
sS'morning sun'
p2646
F6.135915465488004
sS'flaky'
p2647
F6.46061921695171
sS'polished'
p2648
F5.37939867099547
sS'gymnastic'
p2649
F6.890076751803096
sS'vegetated'
p2650
F6.132805043073612
sS'hands matched'
p2651
F5.845899669690003
sS'commitment'
p2652
F7.002081810179591
sS'guard'
p2653
F6.903410282672561
sS'weather'
p2654
F5.339278677206044
sS'brush'
p2655
F5.638260304911759
sS'bigger holds'
p2656
F6.863931471698773
sS'bombay'
p2657
F7.095172233245603
sS'mere'
p2658
F7.302186402629929
sS'easy ramp'
p2659
F6.958596698239852
sS'ridge'
p2660
F3.933167919332009
sS'additional'
p2661
F5.688756468926291
sS'incipient'
p2662
F6.649861216590239
sS'spots'
p2663
F5.071097311340953
sS'awkwardly'
p2664
F6.883476067771744
sS'bump'
p2665
F4.927280648056257
sS'inner'
p2666
F6.777457873694947
sS'biggest'
p2667
F6.078410971007814
sS'cliff'
p2668
F3.377444624794008
sS'tricky'
p2669
F3.363521466255362
sS'difficulty eases'
p2670
F6.783392609214761
sS'footwork'
p2671
F4.958459366304708
sS'north'
p2672
F3.033468453463048
sS'worth checking'
p2673
F6.9375432890420194
sS'triangular'
p2674
F5.692748490195829
sS'slightly easier'
p2675
F6.4392964474828895
sS'repeated'
p2676
F6.958596698239852
sS'gain'
p2677
F3.2912234493468793
sS'highest'
p2678
F5.142317611837479
sS'hard crux'
p2679
F7.145182653820265
sS'short chimney'
p2680
F6.550770313946008
sS'short face'
p2681
F5.956714036030293
sS'count'
p2682
F6.748301289403491
sS'best pitch'
p2683
F7.253396238460497
sS'wise'
p2684
F6.609039222069984
sS'glory'
p2685
F6.546064422908596
sS'hop'
p2686
F6.132805043073612
sS'dangerous'
p2687
F5.575854738724329
sS'smooth'
p2688
F4.615019412444143
sS'excitement'
p2689
F7.087075023012984
sS'placed'
p2690
F4.6753462569532624
sS'hand cracks'
p2691
F6.541380573596169
sS'limit'
p2692
F6.629241929387503
sS'monument'
p2693
F7.063169502159429
sS'piece'
p2694
F4.425800886708505
sS'rounded arete'
p2695
F6.3739670998905
sS'solid holds'
p2696
F7.002081810179591
sS'website'
p2697
F6.624152859880032
sS'bit tricky'
p2698
F6.903410282672561
sS'overhanging arete'
p2699
F5.951519219153189
sS'hollow flake'
p2700
F6.754064994120242
sS'intimidating'
p2701
F5.488991652681809
sS'face fun'
p2702
F7.882004897882871
sS'rubble'
p2703
F7.071074681666542
sS'lower tier'
p2704
F6.789362776201266
sS'hand arete'
p2705
F7.748473505258349
sS'toproping'
p2706
F6.546064422908596
sS'crystals'
p2707
F5.661249823136457
sS'shooting'
p2708
F7.188857717322926
sS'pit'
p2709
F6.021252557167864
sS'campus'
p2710
F5.975111401170009
sS'handcrack'
p2711
F5.2190018746712585
sS'tick'
p2712
F5.972462392998433
sS'compared'
p2713
F6.084310693135001
sS'incredible'
p2714
F5.640156040076658
sS'ledgy'
p2715
F6.624152859880032
sS'boot'
p2716
F7.145182653820265
sS'portion'
p2717
F4.966166533549646
sS'smears'
p2718
F5.626960749657826
sS'book'
p2719
F4.207514181221034
sS'head height'
p2720
F6.4392964474828895
sS'special'
p2721
F6.29788479343306
sS'branch'
p2722
F6.660332516457534
sS'summit register'
p2723
F7.488515980821423
sS'granite'
p2724
F4.0861145050944625
sS'incredibly'
p2725
F6.393927842453039
sS'jamming'
p2726
F4.8934411138074925
sS'sloping'
p2727
F3.849662393802433
sS'overhanging face'
p2728
F5.266174418877429
sS'junk'
p2729
F7.071074681666542
sS'quartz'
p2730
F5.692748490195829
sS'star'
p2731
F4.550438346261999
sS'nice face'
p2732
F6.410188363324819
sS'face great'
p2733
F8.057208986907963
sS'steepens'
p2734
F5.497181706651854
sS'june'
p2735
F6.482406571136618
sS'pull bulge'
p2736
F7.717701846591595
sS'chance'
p2737
F6.21699713429396
sS'kinda'
p2738
F5.841248498514273
sS'badass'
p2739
F8.243794942488375
sS'friends'
p2740
F5.834312054517615
sS'pumpy'
p2741
F4.158465251362489
sS'exposure'
p2742
F4.584185870674551
sS'pull hard'
p2743
F6.987375662789896
sS'reachy'
p2744
F4.822292294665473
sS'inset'
p2745
F7.047544184256348
sS'pods'
p2746
F6.203574113961819
s.